Archive member included because of file (symbol)

c:/devkitPro/libogc/lib/wii\libwiiuse.a(wpad.o)
                              reset.o (WPAD_SetPowerButtonCallback)
c:/devkitPro/libogc/lib/wii\libwiiuse.a(dynamics.o)
                              c:/devkitPro/libogc/lib/wii\libwiiuse.a(wpad.o) (calculate_gforce)
c:/devkitPro/libogc/lib/wii\libwiiuse.a(io_wii.o)
                              c:/devkitPro/libogc/lib/wii\libwiiuse.a(wpad.o) (wiiuse_disconnect)
c:/devkitPro/libogc/lib/wii\libwiiuse.a(ir.o)
                              c:/devkitPro/libogc/lib/wii\libwiiuse.a(wpad.o) (wiiuse_set_ir_vres)
c:/devkitPro/libogc/lib/wii\libwiiuse.a(wiiuse.o)
                              c:/devkitPro/libogc/lib/wii\libwiiuse.a(wpad.o) (wiiuse_set_flags)
c:/devkitPro/libogc/lib/wii\libwiiuse.a(events.o)
                              c:/devkitPro/libogc/lib/wii\libwiiuse.a(io_wii.o) (parse_event)
c:/devkitPro/libogc/lib/wii\libwiiuse.a(guitar_hero_3.o)
                              c:/devkitPro/libogc/lib/wii\libwiiuse.a(events.o) (guitar_hero_3_event)
c:/devkitPro/libogc/lib/wii\libwiiuse.a(io.o)
                              c:/devkitPro/libogc/lib/wii\libwiiuse.a(events.o) (wiiuse_disable_expansion)
c:/devkitPro/libogc/lib/wii\libwiiuse.a(nunchuk.o)
                              c:/devkitPro/libogc/lib/wii\libwiiuse.a(events.o) (nunchuk_event)
c:/devkitPro/libogc/lib/wii\libwiiuse.a(wiiboard.o)
                              c:/devkitPro/libogc/lib/wii\libwiiuse.a(events.o) (wii_board_event)
c:/devkitPro/libogc/lib/wii\libwiiuse.a(classic.o)
                              c:/devkitPro/libogc/lib/wii\libwiiuse.a(events.o) (classic_ctrl_event)
c:/devkitPro/libogc/lib/wii\libbte.a(bte.o)
                              c:/devkitPro/libogc/lib/wii\libwiiuse.a(io_wii.o) (bte_arg)
c:/devkitPro/libogc/lib/wii\libbte.a(hci.o)
                              c:/devkitPro/libogc/lib/wii\libbte.a(bte.o) (hci_arg)
c:/devkitPro/libogc/lib/wii\libbte.a(l2cap.o)
                              c:/devkitPro/libogc/lib/wii\libbte.a(hci.o) (lp_connect_ind)
c:/devkitPro/libogc/lib/wii\libbte.a(btmemb.o)
                              c:/devkitPro/libogc/lib/wii\libbte.a(bte.o) (btmemb_alloc)
c:/devkitPro/libogc/lib/wii\libbte.a(btmemr.o)
                              c:/devkitPro/libogc/lib/wii\libbte.a(hci.o) (btmemr_init)
c:/devkitPro/libogc/lib/wii\libbte.a(btpbuf.o)
                              c:/devkitPro/libogc/lib/wii\libbte.a(hci.o) (btpbuf_header)
c:/devkitPro/libogc/lib/wii\libbte.a(physbusif.o)
                              c:/devkitPro/libogc/lib/wii\libbte.a(bte.o) (physbusif_close)
c:/devkitPro/libogc/lib/wii\libogc.a(console.o)
                              helloworld.o (CON_Init)
c:/devkitPro/libogc/lib/wii\libogc.a(lwp_queue.o)
                              c:/devkitPro/libogc/lib/wii\libwiiuse.a(io_wii.o) (__lwp_queue_initialize)
c:/devkitPro/libogc/lib/wii\libogc.a(lwp_threads.o)
                              c:/devkitPro/libogc/lib/wii\libwiiuse.a(wpad.o) (_thread_dispatch_disable_level)
c:/devkitPro/libogc/lib/wii\libogc.a(lwp.o)
                              c:/devkitPro/libogc/lib/wii\libbte.a(bte.o) (LWP_ThreadSignal)
c:/devkitPro/libogc/lib/wii\libogc.a(lwp_handler.o)
                              c:/devkitPro/libogc/lib/wii\libogc.a(lwp_threads.o) (_cpu_context_save_fp)
c:/devkitPro/libogc/lib/wii\libogc.a(lwp_stack.o)
                              c:/devkitPro/libogc/lib/wii\libogc.a(lwp_threads.o) (__lwp_stack_free)
c:/devkitPro/libogc/lib/wii\libogc.a(lwp_watchdog.o)
                              c:/devkitPro/libogc/lib/wii\libogc.a(lwp_threads.o) (_wd_ticks_queue)
c:/devkitPro/libogc/lib/wii\libogc.a(lwp_wkspace.o)
                              c:/devkitPro/libogc/lib/wii\libwiiuse.a(io_wii.o) (__wkspace_heap)
c:/devkitPro/libogc/lib/wii\libogc.a(lwp_objmgr.o)
                              c:/devkitPro/libogc/lib/wii\libogc.a(lwp.o) (__lwp_objmgr_getnoprotection)
c:/devkitPro/libogc/lib/wii\libogc.a(lwp_heap.o)
                              c:/devkitPro/libogc/lib/wii\libogc.a(lwp_wkspace.o) (__lwp_heap_init)
c:/devkitPro/libogc/lib/wii\libogc.a(sys_state.o)
                              c:/devkitPro/libogc/lib/wii\libogc.a(lwp_threads.o) (_sys_state_curr)
c:/devkitPro/libogc/lib/wii\libogc.a(irq.o)
                              c:/devkitPro/libogc/lib/wii\libwiiuse.a(io_wii.o) (IRQ_Disable)
c:/devkitPro/libogc/lib/wii\libogc.a(video.o)
                              c:/devkitPro/libogc/lib/wii\libogc.a(console.o) (VIDEO_GetCurrentFramebuffer)
c:/devkitPro/libogc/lib/wii\libogc.a(pad.o)
                              pad.o (PAD_ButtonsDown)
c:/devkitPro/libogc/lib/wii\libogc.a(system.o)
                              c:/devkitPro/libogc/lib/wii\libwiiuse.a(wpad.o) (__SYS_DoPowerCB)
c:/devkitPro/libogc/lib/wii\libogc.a(system_asm.o)
                              c:/devkitPro/libogc/lib/wii\libogc.a(system.o) (__realmode)
c:/devkitPro/libogc/lib/wii\libogc.a(cond.o)
                              c:/devkitPro/libogc/lib/wii\libogc.a(system.o) (__lwp_cond_init)
c:/devkitPro/libogc/lib/wii\libogc.a(decrementer.o)
                              c:/devkitPro/libogc/lib/wii\libogc.a(system.o) (__decrementer_init)
c:/devkitPro/libogc/lib/wii\libogc.a(message.o)
                              c:/devkitPro/libogc/lib/wii\libogc.a(system.o) (__lwp_mqbox_init)
c:/devkitPro/libogc/lib/wii\libogc.a(si.o)
                              c:/devkitPro/libogc/lib/wii\libogc.a(pad.o) (SI_Busy)
c:/devkitPro/libogc/lib/wii\libogc.a(ipc.o)
                              c:/devkitPro/libogc/lib/wii\libbte.a(physbusif.o) (__IPC_ClntInit)
c:/devkitPro/libogc/lib/wii\libogc.a(ogc_crt0.o)
                              (_start)
c:/devkitPro/libogc/lib/wii\libogc.a(console_font_8x16.o)
                              c:/devkitPro/libogc/lib/wii\libogc.a(console.o) (console_font_8x16)
c:/devkitPro/libogc/lib/wii\libogc.a(timesupp.o)
                              c:/devkitPro/libogc/lib/wii\libogc.a(system.o) (gettick)
c:/devkitPro/libogc/lib/wii\libogc.a(lock_supp.o)
                              c:/devkitPro/libogc/lib/wii\libogc.a(system.o) (__libogc_lock_release)
c:/devkitPro/libogc/lib/wii\libogc.a(newlibc.o)
                              c:/devkitPro/libogc/lib/wii\libogc.a(lwp_threads.o) (__libc_create_hook)
c:/devkitPro/libogc/lib/wii\libogc.a(usbgecko.o)
                              c:/devkitPro/libogc/lib/wii\libogc.a(console.o) (usb_sendbuffer)
c:/devkitPro/libogc/lib/wii\libogc.a(sbrk.o)
                              c:/devkitPro/libogc/lib/wii\libogc.a(system.o) (__libogc_sbrk_r)
c:/devkitPro/libogc/lib/wii\libogc.a(malloc_lock.o)
                              c:/devkitPro/libogc/lib/wii\libogc.a(system.o) (__libogc_malloc_lock)
c:/devkitPro/libogc/lib/wii\libogc.a(stm.o)
                              c:/devkitPro/libogc/lib/wii\libogc.a(system.o) (STM_RegisterEventHandler)
c:/devkitPro/libogc/lib/wii\libogc.a(ios.o)
                              c:/devkitPro/libogc/lib/wii\libogc.a(system.o) (__IOS_ShutdownSubsystems)
c:/devkitPro/libogc/lib/wii\libogc.a(es.o)
                              c:/devkitPro/libogc/lib/wii\libogc.a(ios.o) (__ES_Reset)
c:/devkitPro/libogc/lib/wii\libogc.a(usb.o)
                              c:/devkitPro/libogc/lib/wii\libbte.a(physbusif.o) (USB_CloseDeviceAsync)
c:/devkitPro/libogc/lib/wii\libogc.a(network_common.o)
                              irc.o (inet_addr)
c:/devkitPro/libogc/lib/wii\libogc.a(argv.o)
                              c:/devkitPro/libogc/lib/wii\libogc.a(ogc_crt0.o) (__CheckARGV)
c:/devkitPro/libogc/lib/wii\libogc.a(network_wii.o)
                              irc.o (net_close)
c:/devkitPro/libogc/lib/wii\libogc.a(conf.o)
                              c:/devkitPro/libogc/lib/wii\libwiiuse.a(wpad.o) (CONF_GetPadDevices)
c:/devkitPro/libogc/lib/wii\libogc.a(wiilaunch.o)
                              c:/devkitPro/libogc/lib/wii\libogc.a(system.o) (WII_ReturnToMenu)
c:/devkitPro/libogc/lib/wii\libogc.a(lwp_priority.o)
                              c:/devkitPro/libogc/lib/wii\libogc.a(system.o) (__lwp_priority_init)
c:/devkitPro/libogc/lib/wii\libogc.a(lwp_threadq.o)
                              c:/devkitPro/libogc/lib/wii\libogc.a(cond.o) (__lwp_threadqueue_first)
c:/devkitPro/libogc/lib/wii\libogc.a(lwp_messages.o)
                              c:/devkitPro/libogc/lib/wii\libogc.a(message.o) (__lwpmq_close)
c:/devkitPro/libogc/lib/wii\libogc.a(lwp_mutex.o)
                              c:/devkitPro/libogc/lib/wii\libogc.a(malloc_lock.o) (__lwp_mutex_initialize)
c:/devkitPro/libogc/lib/wii\libogc.a(exception.o)
                              c:/devkitPro/libogc/lib/wii\libogc.a(system.o) (__libogc_exit)
c:/devkitPro/libogc/lib/wii\libogc.a(irq_handler.o)
                              c:/devkitPro/libogc/lib/wii\libogc.a(exception.o) (irq_exceptionhandler)
c:/devkitPro/libogc/lib/wii\libogc.a(semaphore.o)
                              c:/devkitPro/libogc/lib/wii\libogc.a(system.o) (__lwp_sema_init)
c:/devkitPro/libogc/lib/wii\libogc.a(video_asm.o)
                              c:/devkitPro/libogc/lib/wii\libogc.a(video.o) (__VIClearFramebuffer)
c:/devkitPro/libogc/lib/wii\libogc.a(exi.o)
                              c:/devkitPro/libogc/lib/wii\libogc.a(system.o) (EXI_Sync)
c:/devkitPro/libogc/lib/wii\libogc.a(mutex.o)
                              c:/devkitPro/libogc/lib/wii\libogc.a(lock_supp.o) (LWP_MutexInit)
c:/devkitPro/libogc/lib/wii\libogc.a(cache_asm.o)
                              c:/devkitPro/libogc/lib/wii\libogc.a(system_asm.o) (DCEnable)
c:/devkitPro/libogc/lib/wii\libogc.a(decrementer_handler.o)
                              c:/devkitPro/libogc/lib/wii\libogc.a(exception.o) (dec_exceptionhandler)
c:/devkitPro/libogc/lib/wii\libogc.a(kprintf.o)
                              c:/devkitPro/libogc/lib/wii\libogc.a(exception.o) (kprintf)
c:/devkitPro/libogc/lib/wii\libogc.a(lwp_sema.o)
                              c:/devkitPro/libogc/lib/wii\libogc.a(semaphore.o) (__lwp_sema_flush)
c:/devkitPro/libogc/lib/wii\libogc.a(exception_handler.o)
                              c:/devkitPro/libogc/lib/wii\libogc.a(exception.o) (exceptionhandler_start)
c:/devkitpro/devkitppc/bin/../lib/gcc/powerpc-gekko/4.2.4/../../../../powerpc-gekko/lib\libm.a(lib_a-s_atan2.o)
                              c:/devkitPro/libogc/lib/wii\libwiiuse.a(ir.o) (atan2)
c:/devkitpro/devkitppc/bin/../lib/gcc/powerpc-gekko/4.2.4/../../../../powerpc-gekko/lib\libm.a(lib_a-s_atangent.o)
                              c:/devkitpro/devkitppc/bin/../lib/gcc/powerpc-gekko/4.2.4/../../../../powerpc-gekko/lib\libm.a(lib_a-s_atan2.o) (atangent)
c:/devkitpro/devkitppc/bin/../lib/gcc/powerpc-gekko/4.2.4/../../../../powerpc-gekko/lib\libm.a(lib_a-s_cos.o)
                              c:/devkitPro/libogc/lib/wii\libwiiuse.a(ir.o) (cos)
c:/devkitpro/devkitppc/bin/../lib/gcc/powerpc-gekko/4.2.4/../../../../powerpc-gekko/lib\libm.a(lib_a-s_fabs.o)
                              c:/devkitpro/devkitppc/bin/../lib/gcc/powerpc-gekko/4.2.4/../../../../powerpc-gekko/lib\libm.a(lib_a-s_atangent.o) (fabs)
c:/devkitpro/devkitppc/bin/../lib/gcc/powerpc-gekko/4.2.4/../../../../powerpc-gekko/lib\libm.a(lib_a-s_frexp.o)
                              c:/devkitpro/devkitppc/bin/../lib/gcc/powerpc-gekko/4.2.4/../../../../powerpc-gekko/lib\libm.a(lib_a-s_atangent.o) (frexp)
c:/devkitpro/devkitppc/bin/../lib/gcc/powerpc-gekko/4.2.4/../../../../powerpc-gekko/lib\libm.a(lib_a-s_mathcnst.o)
                              c:/devkitpro/devkitppc/bin/../lib/gcc/powerpc-gekko/4.2.4/../../../../powerpc-gekko/lib\libm.a(lib_a-s_atangent.o) (z_rooteps)
c:/devkitpro/devkitppc/bin/../lib/gcc/powerpc-gekko/4.2.4/../../../../powerpc-gekko/lib\libm.a(lib_a-s_numtest.o)
                              c:/devkitpro/devkitppc/bin/../lib/gcc/powerpc-gekko/4.2.4/../../../../powerpc-gekko/lib\libm.a(lib_a-s_fabs.o) (numtest)
c:/devkitpro/devkitppc/bin/../lib/gcc/powerpc-gekko/4.2.4/../../../../powerpc-gekko/lib\libm.a(lib_a-s_sin.o)
                              c:/devkitPro/libogc/lib/wii\libwiiuse.a(ir.o) (sin)
c:/devkitpro/devkitppc/bin/../lib/gcc/powerpc-gekko/4.2.4/../../../../powerpc-gekko/lib\libm.a(lib_a-s_sine.o)
                              c:/devkitpro/devkitppc/bin/../lib/gcc/powerpc-gekko/4.2.4/../../../../powerpc-gekko/lib\libm.a(lib_a-s_cos.o) (sine)
c:/devkitpro/devkitppc/bin/../lib/gcc/powerpc-gekko/4.2.4/../../../../powerpc-gekko/lib\libm.a(lib_a-s_sqrt.o)
                              c:/devkitPro/libogc/lib/wii\libwiiuse.a(dynamics.o) (sqrt)
c:/devkitpro/devkitppc/bin/../lib/gcc/powerpc-gekko/4.2.4/../../../../powerpc-gekko/lib\libm.a(lib_a-sf_atan.o)
                              c:/devkitPro/libogc/lib/wii\libwiiuse.a(dynamics.o) (atanf)
c:/devkitpro/devkitppc/bin/../lib/gcc/powerpc-gekko/4.2.4/../../../../powerpc-gekko/lib\libm.a(lib_a-sf_atan2.o)
                              c:/devkitPro/libogc/lib/wii\libwiiuse.a(dynamics.o) (atan2f)
c:/devkitpro/devkitppc/bin/../lib/gcc/powerpc-gekko/4.2.4/../../../../powerpc-gekko/lib\libm.a(lib_a-sf_atangent.o)
                              c:/devkitpro/devkitppc/bin/../lib/gcc/powerpc-gekko/4.2.4/../../../../powerpc-gekko/lib\libm.a(lib_a-sf_atan.o) (atangentf)
c:/devkitpro/devkitppc/bin/../lib/gcc/powerpc-gekko/4.2.4/../../../../powerpc-gekko/lib\libm.a(lib_a-sf_cos.o)
                              c:/devkitPro/libogc/lib/wii\libwiiuse.a(ir.o) (cosf)
c:/devkitpro/devkitppc/bin/../lib/gcc/powerpc-gekko/4.2.4/../../../../powerpc-gekko/lib\libm.a(lib_a-sf_fabs.o)
                              c:/devkitpro/devkitppc/bin/../lib/gcc/powerpc-gekko/4.2.4/../../../../powerpc-gekko/lib\libm.a(lib_a-sf_atangent.o) (fabsf)
c:/devkitpro/devkitppc/bin/../lib/gcc/powerpc-gekko/4.2.4/../../../../powerpc-gekko/lib\libm.a(lib_a-sf_fpclassify.o)
                              c:/devkitPro/libogc/lib/wii\libwiiuse.a(dynamics.o) (__fpclassifyf)
c:/devkitpro/devkitppc/bin/../lib/gcc/powerpc-gekko/4.2.4/../../../../powerpc-gekko/lib\libm.a(lib_a-sf_frexp.o)
                              c:/devkitpro/devkitppc/bin/../lib/gcc/powerpc-gekko/4.2.4/../../../../powerpc-gekko/lib\libm.a(lib_a-sf_atangent.o) (frexpf)
c:/devkitpro/devkitppc/bin/../lib/gcc/powerpc-gekko/4.2.4/../../../../powerpc-gekko/lib\libm.a(lib_a-sf_isinff.o)
                              c:/devkitPro/libogc/lib/wii\libwiiuse.a(dynamics.o) (__isinff)
c:/devkitpro/devkitppc/bin/../lib/gcc/powerpc-gekko/4.2.4/../../../../powerpc-gekko/lib\libm.a(lib_a-sf_isnanf.o)
                              c:/devkitPro/libogc/lib/wii\libwiiuse.a(dynamics.o) (__isnanf)
c:/devkitpro/devkitppc/bin/../lib/gcc/powerpc-gekko/4.2.4/../../../../powerpc-gekko/lib\libm.a(lib_a-sf_numtest.o)
                              c:/devkitpro/devkitppc/bin/../lib/gcc/powerpc-gekko/4.2.4/../../../../powerpc-gekko/lib\libm.a(lib_a-sf_atan.o) (numtestf)
c:/devkitpro/devkitppc/bin/../lib/gcc/powerpc-gekko/4.2.4/../../../../powerpc-gekko/lib\libm.a(lib_a-sf_sin.o)
                              c:/devkitPro/libogc/lib/wii\libwiiuse.a(ir.o) (sinf)
c:/devkitpro/devkitppc/bin/../lib/gcc/powerpc-gekko/4.2.4/../../../../powerpc-gekko/lib\libm.a(lib_a-sf_sine.o)
                              c:/devkitpro/devkitppc/bin/../lib/gcc/powerpc-gekko/4.2.4/../../../../powerpc-gekko/lib\libm.a(lib_a-sf_cos.o) (sinef)
c:/devkitpro/devkitppc/bin/../lib/gcc/powerpc-gekko/4.2.4/../../../../powerpc-gekko/lib\libm.a(lib_a-sf_sqrt.o)
                              c:/devkitPro/libogc/lib/wii\libwiiuse.a(ir.o) (sqrtf)
c:/devkitpro/devkitppc/bin/../lib/gcc/powerpc-gekko/4.2.4/../../../../powerpc-gekko/lib\libm.a(lib_a-s_ispos.o)
                              c:/devkitpro/devkitppc/bin/../lib/gcc/powerpc-gekko/4.2.4/../../../../powerpc-gekko/lib\libm.a(lib_a-s_sqrt.o) (ispos)
c:/devkitpro/devkitppc/bin/../lib/gcc/powerpc-gekko/4.2.4/../../../../powerpc-gekko/lib\libm.a(lib_a-s_ldexp.o)
                              c:/devkitpro/devkitppc/bin/../lib/gcc/powerpc-gekko/4.2.4/../../../../powerpc-gekko/lib\libm.a(lib_a-s_sqrt.o) (ldexp)
c:/devkitpro/devkitppc/bin/../lib/gcc/powerpc-gekko/4.2.4/../../../../powerpc-gekko/lib\libm.a(lib_a-sf_ispos.o)
                              c:/devkitpro/devkitppc/bin/../lib/gcc/powerpc-gekko/4.2.4/../../../../powerpc-gekko/lib\libm.a(lib_a-sf_sqrt.o) (isposf)
c:/devkitpro/devkitppc/bin/../lib/gcc/powerpc-gekko/4.2.4/../../../../powerpc-gekko/lib\libm.a(lib_a-sf_ldexp.o)
                              c:/devkitpro/devkitppc/bin/../lib/gcc/powerpc-gekko/4.2.4/../../../../powerpc-gekko/lib\libm.a(lib_a-sf_sqrt.o) (ldexpf)
c:/devkitpro/devkitppc/bin/../lib/gcc/powerpc-gekko/4.2.4\libgcc.a(_udivdi3.o)
                              c:/devkitPro/libogc/lib/wii\libogc.a(system.o) (__udivdi3)
c:/devkitpro/devkitppc/bin/../lib/gcc/powerpc-gekko/4.2.4/../../../../powerpc-gekko/lib\libsysbase.a(abort.o)
                              c:/devkitPro/libogc/lib/wii\libogc.a(newlibc.o) (abort)
c:/devkitpro/devkitppc/bin/../lib/gcc/powerpc-gekko/4.2.4/../../../../powerpc-gekko/lib\libsysbase.a(iosupport.o)
                              c:/devkitPro/libogc/lib/wii\libogc.a(es.o) (AddDevice)
c:/devkitpro/devkitppc/bin/../lib/gcc/powerpc-gekko/4.2.4/../../../../powerpc-gekko/lib\libsysbase.a(_exit.o)
                              c:/devkitpro/devkitppc/bin/../lib/gcc/powerpc-gekko/4.2.4/../../../../powerpc-gekko/lib\libsysbase.a(abort.o) (_exit)
c:/devkitpro/devkitppc/bin/../lib/gcc/powerpc-gekko/4.2.4/../../../../powerpc-gekko/lib\libsysbase.a(build_argv.o)
                              c:/devkitPro/libogc/lib/wii\libogc.a(argv.o) (build_argv)
c:/devkitpro/devkitppc/bin/../lib/gcc/powerpc-gekko/4.2.4/../../../../powerpc-gekko/lib\libsysbase.a(syscall_support.o)
                              c:/devkitPro/libogc/lib/wii\libogc.a(system.o) (__syscalls)
c:/devkitpro/devkitppc/bin/../lib/gcc/powerpc-gekko/4.2.4/../../../../powerpc-gekko/lib\libc.a(lib_a-atoi.o)
                              irc.o (atoi)
c:/devkitpro/devkitppc/bin/../lib/gcc/powerpc-gekko/4.2.4/../../../../powerpc-gekko/lib\libc.a(lib_a-calloc.o)
                              c:/devkitPro/libogc/lib/wii\libogc.a(newlibc.o) (calloc)
c:/devkitpro/devkitppc/bin/../lib/gcc/powerpc-gekko/4.2.4/../../../../powerpc-gekko/lib\libc.a(lib_a-callocr.o)
                              c:/devkitpro/devkitppc/bin/../lib/gcc/powerpc-gekko/4.2.4/../../../../powerpc-gekko/lib\libc.a(lib_a-calloc.o) (_calloc_r)
c:/devkitpro/devkitppc/bin/../lib/gcc/powerpc-gekko/4.2.4/../../../../powerpc-gekko/lib\libc.a(lib_a-ctype_.o)
                              c:/devkitPro/libogc/lib/wii\libogc.a(ipc.o) (__ctype_ptr)
c:/devkitpro/devkitppc/bin/../lib/gcc/powerpc-gekko/4.2.4/../../../../powerpc-gekko/lib\libc.a(lib_a-errno.o)
                              c:/devkitPro/libogc/lib/wii\libogc.a(network_wii.o) (__errno)
c:/devkitpro/devkitppc/bin/../lib/gcc/powerpc-gekko/4.2.4/../../../../powerpc-gekko/lib\libc.a(lib_a-exit.o)
                              c:/devkitpro/devkitppc/bin/../lib/gcc/powerpc-gekko/4.2.4/../../../../powerpc-gekko/lib/crtmain.o (exit)
c:/devkitpro/devkitppc/bin/../lib/gcc/powerpc-gekko/4.2.4/../../../../powerpc-gekko/lib\libc.a(lib_a-fflush.o)
                              c:/devkitPro/libogc/lib/wii\libogc.a(network_wii.o) (fflush)
c:/devkitpro/devkitppc/bin/../lib/gcc/powerpc-gekko/4.2.4/../../../../powerpc-gekko/lib\libc.a(lib_a-findfp.o)
                              c:/devkitpro/devkitppc/bin/../lib/gcc/powerpc-gekko/4.2.4/../../../../powerpc-gekko/lib\libc.a(lib_a-fflush.o) (__sinit)
c:/devkitpro/devkitppc/bin/../lib/gcc/powerpc-gekko/4.2.4/../../../../powerpc-gekko/lib\libc.a(lib_a-fprintf.o)
                              irc.o (fprintf)
c:/devkitpro/devkitppc/bin/../lib/gcc/powerpc-gekko/4.2.4/../../../../powerpc-gekko/lib\libc.a(lib_a-freer.o)
                              c:/devkitPro/libogc/lib/wii\libogc.a(es.o) (_free_r)
c:/devkitpro/devkitppc/bin/../lib/gcc/powerpc-gekko/4.2.4/../../../../powerpc-gekko/lib\libc.a(lib_a-fwalk.o)
                              c:/devkitpro/devkitppc/bin/../lib/gcc/powerpc-gekko/4.2.4/../../../../powerpc-gekko/lib\libc.a(lib_a-fflush.o) (_fwalk_reent)
c:/devkitpro/devkitppc/bin/../lib/gcc/powerpc-gekko/4.2.4/../../../../powerpc-gekko/lib\libc.a(lib_a-fwrite.o)
                              irc.o (fwrite)
c:/devkitpro/devkitppc/bin/../lib/gcc/powerpc-gekko/4.2.4/../../../../powerpc-gekko/lib\libc.a(lib_a-impure.o)
                              irc.o (_impure_ptr)
c:/devkitpro/devkitppc/bin/../lib/gcc/powerpc-gekko/4.2.4/../../../../powerpc-gekko/lib\libc.a(lib_a-malign.o)
                              c:/devkitPro/libogc/lib/wii\libogc.a(system.o) (memalign)
c:/devkitpro/devkitppc/bin/../lib/gcc/powerpc-gekko/4.2.4/../../../../powerpc-gekko/lib\libc.a(lib_a-malignr.o)
                              c:/devkitPro/libogc/lib/wii\libogc.a(es.o) (_memalign_r)
c:/devkitpro/devkitppc/bin/../lib/gcc/powerpc-gekko/4.2.4/../../../../powerpc-gekko/lib\libc.a(lib_a-malloc.o)
                              c:/devkitPro/libogc/lib/wii\libbte.a(bte.o) (free)
c:/devkitpro/devkitppc/bin/../lib/gcc/powerpc-gekko/4.2.4/../../../../powerpc-gekko/lib\libc.a(lib_a-mallocr.o)
                              c:/devkitpro/devkitppc/bin/../lib/gcc/powerpc-gekko/4.2.4/../../../../powerpc-gekko/lib\libc.a(lib_a-callocr.o) (_malloc_r)
c:/devkitpro/devkitppc/bin/../lib/gcc/powerpc-gekko/4.2.4/../../../../powerpc-gekko/lib\libc.a(lib_a-memcmp.o)
                              c:/devkitPro/libogc/lib/wii\libogc.a(conf.o) (memcmp)
c:/devkitpro/devkitppc/bin/../lib/gcc/powerpc-gekko/4.2.4/../../../../powerpc-gekko/lib\libc.a(lib_a-memcpy.o)
                              irc.o (memcpy)
c:/devkitpro/devkitppc/bin/../lib/gcc/powerpc-gekko/4.2.4/../../../../powerpc-gekko/lib\libc.a(lib_a-memmove.o)
                              c:/devkitPro/libogc/lib/wii\libogc.a(argv.o) (memmove)
c:/devkitpro/devkitppc/bin/../lib/gcc/powerpc-gekko/4.2.4/../../../../powerpc-gekko/lib\libc.a(lib_a-memset.o)
                              irc.o (memset)
c:/devkitpro/devkitppc/bin/../lib/gcc/powerpc-gekko/4.2.4/../../../../powerpc-gekko/lib\libc.a(lib_a-printf.o)
                              helloworld.o (printf)
c:/devkitpro/devkitppc/bin/../lib/gcc/powerpc-gekko/4.2.4/../../../../powerpc-gekko/lib\libc.a(lib_a-puts.o)
                              irc.o (puts)
c:/devkitpro/devkitppc/bin/../lib/gcc/powerpc-gekko/4.2.4/../../../../powerpc-gekko/lib\libc.a(lib_a-reent.o)
                              c:/devkitPro/libogc/lib/wii\libogc.a(newlibc.o) (_wrapup_reent)
c:/devkitpro/devkitppc/bin/../lib/gcc/powerpc-gekko/4.2.4/../../../../powerpc-gekko/lib\libc.a(lib_a-setvbuf.o)
                              c:/devkitPro/libogc/lib/wii\libogc.a(console.o) (setvbuf)
c:/devkitpro/devkitppc/bin/../lib/gcc/powerpc-gekko/4.2.4/../../../../powerpc-gekko/lib\libc.a(lib_a-snprintf.o)
                              c:/devkitPro/libogc/lib/wii\libogc.a(usb.o) (snprintf)
c:/devkitpro/devkitppc/bin/../lib/gcc/powerpc-gekko/4.2.4/../../../../powerpc-gekko/lib\libc.a(lib_a-sprintf.o)
                              c:/devkitPro/libogc/lib/wii\libogc.a(wiilaunch.o) (sprintf)
c:/devkitpro/devkitppc/bin/../lib/gcc/powerpc-gekko/4.2.4/../../../../powerpc-gekko/lib\libc.a(lib_a-stdio.o)
                              c:/devkitpro/devkitppc/bin/../lib/gcc/powerpc-gekko/4.2.4/../../../../powerpc-gekko/lib\libc.a(lib_a-findfp.o) (__sclose)
c:/devkitpro/devkitppc/bin/../lib/gcc/powerpc-gekko/4.2.4/../../../../powerpc-gekko/lib\libc.a(lib_a-strchr.o)
                              c:/devkitPro/libogc/lib/wii\libogc.a(conf.o) (strchr)
c:/devkitpro/devkitppc/bin/../lib/gcc/powerpc-gekko/4.2.4/../../../../powerpc-gekko/lib\libc.a(lib_a-strcmp.o)
                              c:/devkitPro/libogc/lib/wii\libogc.a(conf.o) (strcmp)
c:/devkitpro/devkitppc/bin/../lib/gcc/powerpc-gekko/4.2.4/../../../../powerpc-gekko/lib\libc.a(lib_a-strcpy.o)
                              tcpflood.o (strcpy)
c:/devkitpro/devkitppc/bin/../lib/gcc/powerpc-gekko/4.2.4/../../../../powerpc-gekko/lib\libc.a(lib_a-strerror.o)
                              irc.o (strerror)
c:/devkitpro/devkitppc/bin/../lib/gcc/powerpc-gekko/4.2.4/../../../../powerpc-gekko/lib\libc.a(lib_a-strlen.o)
                              irc.o (strlen)
c:/devkitpro/devkitppc/bin/../lib/gcc/powerpc-gekko/4.2.4/../../../../powerpc-gekko/lib\libc.a(lib_a-strncmp.o)
                              irc.o (strncmp)
c:/devkitpro/devkitppc/bin/../lib/gcc/powerpc-gekko/4.2.4/../../../../powerpc-gekko/lib\libc.a(lib_a-strncpy.o)
                              c:/devkitPro/libogc/lib/wii\libogc.a(usb.o) (strncpy)
c:/devkitpro/devkitppc/bin/../lib/gcc/powerpc-gekko/4.2.4/../../../../powerpc-gekko/lib\libc.a(lib_a-strnlen.o)
                              c:/devkitPro/libogc/lib/wii\libogc.a(ipc.o) (strnlen)
c:/devkitpro/devkitppc/bin/../lib/gcc/powerpc-gekko/4.2.4/../../../../powerpc-gekko/lib\libc.a(lib_a-strtok.o)
                              irc.o (strtok)
c:/devkitpro/devkitppc/bin/../lib/gcc/powerpc-gekko/4.2.4/../../../../powerpc-gekko/lib\libc.a(lib_a-strtok_r.o)
                              c:/devkitpro/devkitppc/bin/../lib/gcc/powerpc-gekko/4.2.4/../../../../powerpc-gekko/lib\libc.a(lib_a-strtok.o) (__strtok_r)
c:/devkitpro/devkitppc/bin/../lib/gcc/powerpc-gekko/4.2.4/../../../../powerpc-gekko/lib\libc.a(lib_a-strtol.o)
                              c:/devkitpro/devkitppc/bin/../lib/gcc/powerpc-gekko/4.2.4/../../../../powerpc-gekko/lib\libc.a(lib_a-atoi.o) (_strtol_r)
c:/devkitpro/devkitppc/bin/../lib/gcc/powerpc-gekko/4.2.4/../../../../powerpc-gekko/lib\libc.a(lib_a-strtoul.o)
                              c:/devkitPro/libogc/lib/wii\libogc.a(es.o) (_strtoul_r)
c:/devkitpro/devkitppc/bin/../lib/gcc/powerpc-gekko/4.2.4/../../../../powerpc-gekko/lib\libc.a(lib_a-strtoull_r.o)
                              c:/devkitPro/libogc/lib/wii\libogc.a(es.o) (_strtoull_r)
c:/devkitpro/devkitppc/bin/../lib/gcc/powerpc-gekko/4.2.4/../../../../powerpc-gekko/lib\libc.a(lib_a-syswrite.o)
                              c:/devkitPro/libogc/lib/wii\libogc.a(kprintf.o) (write)
c:/devkitpro/devkitppc/bin/../lib/gcc/powerpc-gekko/4.2.4/../../../../powerpc-gekko/lib\libc.a(lib_a-u_strerr.o)
                              c:/devkitpro/devkitppc/bin/../lib/gcc/powerpc-gekko/4.2.4/../../../../powerpc-gekko/lib\libc.a(lib_a-strerror.o) (_user_strerror)
c:/devkitpro/devkitppc/bin/../lib/gcc/powerpc-gekko/4.2.4/../../../../powerpc-gekko/lib\libc.a(lib_a-vfprintf.o)
                              c:/devkitpro/devkitppc/bin/../lib/gcc/powerpc-gekko/4.2.4/../../../../powerpc-gekko/lib\libc.a(lib_a-fprintf.o) (_vfprintf_r)
c:/devkitpro/devkitppc/bin/../lib/gcc/powerpc-gekko/4.2.4/../../../../powerpc-gekko/lib\libc.a(lib_a-wcrtomb.o)
                              c:/devkitpro/devkitppc/bin/../lib/gcc/powerpc-gekko/4.2.4/../../../../powerpc-gekko/lib\libc.a(lib_a-vfprintf.o) (_wcrtomb_r)
c:/devkitpro/devkitppc/bin/../lib/gcc/powerpc-gekko/4.2.4/../../../../powerpc-gekko/lib\libc.a(lib_a-wcsrtombs.o)
                              c:/devkitpro/devkitppc/bin/../lib/gcc/powerpc-gekko/4.2.4/../../../../powerpc-gekko/lib\libc.a(lib_a-vfprintf.o) (_wcsrtombs_r)
c:/devkitpro/devkitppc/bin/../lib/gcc/powerpc-gekko/4.2.4/../../../../powerpc-gekko/lib\libc.a(lib_a-wctomb_r.o)
                              c:/devkitpro/devkitppc/bin/../lib/gcc/powerpc-gekko/4.2.4/../../../../powerpc-gekko/lib\libc.a(lib_a-wcrtomb.o) (_wctomb_r)
c:/devkitpro/devkitppc/bin/../lib/gcc/powerpc-gekko/4.2.4/../../../../powerpc-gekko/lib\libc.a(lib_a-wsetup.o)
                              c:/devkitpro/devkitppc/bin/../lib/gcc/powerpc-gekko/4.2.4/../../../../powerpc-gekko/lib\libc.a(lib_a-vfprintf.o) (__swsetup_r)
c:/devkitpro/devkitppc/bin/../lib/gcc/powerpc-gekko/4.2.4/../../../../powerpc-gekko/lib\libc.a(lib_a-__call_atexit.o)
                              c:/devkitpro/devkitppc/bin/../lib/gcc/powerpc-gekko/4.2.4/../../../../powerpc-gekko/lib\libc.a(lib_a-exit.o) (__call_exitprocs)
c:/devkitpro/devkitppc/bin/../lib/gcc/powerpc-gekko/4.2.4/../../../../powerpc-gekko/lib\libc.a(lib_a-dtoa.o)
                              c:/devkitpro/devkitppc/bin/../lib/gcc/powerpc-gekko/4.2.4/../../../../powerpc-gekko/lib\libc.a(lib_a-vfprintf.o) (_dtoa_r)
c:/devkitpro/devkitppc/bin/../lib/gcc/powerpc-gekko/4.2.4/../../../../powerpc-gekko/lib\libc.a(lib_a-fclose.o)
                              c:/devkitpro/devkitppc/bin/../lib/gcc/powerpc-gekko/4.2.4/../../../../powerpc-gekko/lib\libc.a(lib_a-findfp.o) (fclose)
c:/devkitpro/devkitppc/bin/../lib/gcc/powerpc-gekko/4.2.4/../../../../powerpc-gekko/lib\libc.a(lib_a-fvwrite.o)
                              c:/devkitpro/devkitppc/bin/../lib/gcc/powerpc-gekko/4.2.4/../../../../powerpc-gekko/lib\libc.a(lib_a-fwrite.o) (__sfvwrite_r)
c:/devkitpro/devkitppc/bin/../lib/gcc/powerpc-gekko/4.2.4/../../../../powerpc-gekko/lib\libc.a(lib_a-locale.o)
                              c:/devkitpro/devkitppc/bin/../lib/gcc/powerpc-gekko/4.2.4/../../../../powerpc-gekko/lib\libc.a(lib_a-vfprintf.o) (_localeconv_r)
c:/devkitpro/devkitppc/bin/../lib/gcc/powerpc-gekko/4.2.4/../../../../powerpc-gekko/lib\libc.a(lib_a-makebuf.o)
                              c:/devkitpro/devkitppc/bin/../lib/gcc/powerpc-gekko/4.2.4/../../../../powerpc-gekko/lib\libc.a(lib_a-wsetup.o) (__smakebuf_r)
c:/devkitpro/devkitppc/bin/../lib/gcc/powerpc-gekko/4.2.4/../../../../powerpc-gekko/lib\libc.a(lib_a-mbtowc_r.o)
                              c:/devkitpro/devkitppc/bin/../lib/gcc/powerpc-gekko/4.2.4/../../../../powerpc-gekko/lib\libc.a(lib_a-vfprintf.o) (_mbtowc_r)
c:/devkitpro/devkitppc/bin/../lib/gcc/powerpc-gekko/4.2.4/../../../../powerpc-gekko/lib\libc.a(lib_a-memchr.o)
                              c:/devkitpro/devkitppc/bin/../lib/gcc/powerpc-gekko/4.2.4/../../../../powerpc-gekko/lib\libc.a(lib_a-vfprintf.o) (memchr)
c:/devkitpro/devkitppc/bin/../lib/gcc/powerpc-gekko/4.2.4/../../../../powerpc-gekko/lib\libc.a(lib_a-mprec.o)
                              c:/devkitpro/devkitppc/bin/../lib/gcc/powerpc-gekko/4.2.4/../../../../powerpc-gekko/lib\libc.a(lib_a-dtoa.o) (_Bfree)
c:/devkitpro/devkitppc/bin/../lib/gcc/powerpc-gekko/4.2.4/../../../../powerpc-gekko/lib\libc.a(lib_a-reallocr.o)
                              c:/devkitpro/devkitppc/bin/../lib/gcc/powerpc-gekko/4.2.4/../../../../powerpc-gekko/lib\libc.a(lib_a-fvwrite.o) (_realloc_r)
c:/devkitpro/devkitppc/bin/../lib/gcc/powerpc-gekko/4.2.4/../../../../powerpc-gekko/lib\libc.a(lib_a-s_isinfd.o)
                              c:/devkitpro/devkitppc/bin/../lib/gcc/powerpc-gekko/4.2.4/../../../../powerpc-gekko/lib\libc.a(lib_a-vfprintf.o) (__isinfd)
c:/devkitpro/devkitppc/bin/../lib/gcc/powerpc-gekko/4.2.4/../../../../powerpc-gekko/lib\libc.a(lib_a-s_isnand.o)
                              c:/devkitpro/devkitppc/bin/../lib/gcc/powerpc-gekko/4.2.4/../../../../powerpc-gekko/lib\libc.a(lib_a-vfprintf.o) (__isnand)
c:/devkitpro/devkitppc/bin/../lib/gcc/powerpc-gekko/4.2.4/../../../../powerpc-gekko/lib\libsysbase.a(close.o)
                              c:/devkitpro/devkitppc/bin/../lib/gcc/powerpc-gekko/4.2.4/../../../../powerpc-gekko/lib\libc.a(lib_a-stdio.o) (_close_r)
c:/devkitpro/devkitppc/bin/../lib/gcc/powerpc-gekko/4.2.4/../../../../powerpc-gekko/lib\libsysbase.a(fstat.o)
                              c:/devkitpro/devkitppc/bin/../lib/gcc/powerpc-gekko/4.2.4/../../../../powerpc-gekko/lib\libc.a(lib_a-makebuf.o) (_fstat_r)
c:/devkitpro/devkitppc/bin/../lib/gcc/powerpc-gekko/4.2.4/../../../../powerpc-gekko/lib\libsysbase.a(isatty.o)
                              c:/devkitpro/devkitppc/bin/../lib/gcc/powerpc-gekko/4.2.4/../../../../powerpc-gekko/lib\libc.a(lib_a-makebuf.o) (isatty)
c:/devkitpro/devkitppc/bin/../lib/gcc/powerpc-gekko/4.2.4/../../../../powerpc-gekko/lib\libsysbase.a(lseek.o)
                              c:/devkitpro/devkitppc/bin/../lib/gcc/powerpc-gekko/4.2.4/../../../../powerpc-gekko/lib\libc.a(lib_a-stdio.o) (_lseek_r)
c:/devkitpro/devkitppc/bin/../lib/gcc/powerpc-gekko/4.2.4/../../../../powerpc-gekko/lib\libsysbase.a(read.o)
                              c:/devkitpro/devkitppc/bin/../lib/gcc/powerpc-gekko/4.2.4/../../../../powerpc-gekko/lib\libc.a(lib_a-stdio.o) (_read_r)
c:/devkitpro/devkitppc/bin/../lib/gcc/powerpc-gekko/4.2.4/../../../../powerpc-gekko/lib\libsysbase.a(sbrk.o)
                              c:/devkitpro/devkitppc/bin/../lib/gcc/powerpc-gekko/4.2.4/../../../../powerpc-gekko/lib\libc.a(lib_a-freer.o) (_sbrk_r)
c:/devkitpro/devkitppc/bin/../lib/gcc/powerpc-gekko/4.2.4/../../../../powerpc-gekko/lib\libsysbase.a(write.o)
                              c:/devkitpro/devkitppc/bin/../lib/gcc/powerpc-gekko/4.2.4/../../../../powerpc-gekko/lib\libc.a(lib_a-stdio.o) (_write_r)
c:/devkitpro/devkitppc/bin/../lib/gcc/powerpc-gekko/4.2.4/../../../../powerpc-gekko/lib\libsysbase.a(flock.o)
                              c:/devkitpro/devkitppc/bin/../lib/gcc/powerpc-gekko/4.2.4/../../../../powerpc-gekko/lib\libc.a(lib_a-fflush.o) (__funlockfile)
c:/devkitpro/devkitppc/bin/../lib/gcc/powerpc-gekko/4.2.4/../../../../powerpc-gekko/lib\libsysbase.a(handle_manager.o)
                              c:/devkitpro/devkitppc/bin/../lib/gcc/powerpc-gekko/4.2.4/../../../../powerpc-gekko/lib\libsysbase.a(close.o) (__get_handle)
c:/devkitpro/devkitppc/bin/../lib/gcc/powerpc-gekko/4.2.4\libgcc.a(_umoddi3.o)
                              c:/devkitpro/devkitppc/bin/../lib/gcc/powerpc-gekko/4.2.4/../../../../powerpc-gekko/lib\libc.a(lib_a-strtoull_r.o) (__umoddi3)

Allocating common symbols
Common symbol       size              file

_wd_sync_count      0x4               c:/devkitPro/libogc/lib/wii\libogc.a(lwp_watchdog.o)
_context_switch_want
                    0x4               c:/devkitPro/libogc/lib/wii\libogc.a(lwp_threads.o)
l2cap_active_pcbs   0x4               c:/devkitPro/libogc/lib/wii\libbte.a(l2cap.o)
_wd_sync_level      0x4               c:/devkitPro/libogc/lib/wii\libogc.a(lwp_watchdog.o)
_exceptionhandlertable
                    0x3c              c:/devkitPro/libogc/lib/wii\libogc.a(exception.o)
_thread_dispatch_disable_level
                    0x4               c:/devkitPro/libogc/lib/wii\libogc.a(lwp_threads.o)
_lwp_sema_objects   0x28              c:/devkitPro/libogc/lib/wii\libogc.a(semaphore.o)
_lwp_cond_objects   0x28              c:/devkitPro/libogc/lib/wii\libogc.a(cond.o)
_prio_bitmap        0x40              c:/devkitPro/libogc/lib/wii\libogc.a(lwp_priority.o)
_wd_ticks_queue     0xc               c:/devkitPro/libogc/lib/wii\libogc.a(lwp_watchdog.o)
__outstr            0x100             c:/devkitPro/libogc/lib/wii\libogc.a(kprintf.o)
_wd_ticks_since_boot
                    0x4               c:/devkitPro/libogc/lib/wii\libogc.a(lwp_watchdog.o)
_sys_state_curr     0x4               c:/devkitPro/libogc/lib/wii\libogc.a(sys_state.o)
_lwp_thr_ready      0xc00             c:/devkitPro/libogc/lib/wii\libogc.a(lwp_threads.o)
libc_globl_reent    0x400             c:/devkitPro/libogc/lib/wii\libogc.a(newlibc.o)
sigid_nxt           0x1               c:/devkitPro/libogc/lib/wii\libbte.a(l2cap.o)
_prio_major_bitmap  0x4               c:/devkitPro/libogc/lib/wii\libogc.a(lwp_priority.o)
__wkspace_heap      0x1c              c:/devkitPro/libogc/lib/wii\libogc.a(lwp_wkspace.o)
sramcntrl           0x50              c:/devkitPro/libogc/lib/wii\libogc.a(system.o)
_lwp_mqbox_objects  0x28              c:/devkitPro/libogc/lib/wii\libogc.a(message.o)
libc_reentrant      0x4               c:/devkitPro/libogc/lib/wii\libogc.a(newlibc.o)
_lwp_wd_timeslice   0x28              c:/devkitPro/libogc/lib/wii\libogc.a(lwp_threads.o)
_lwp_thr_objects    0x28              c:/devkitPro/libogc/lib/wii\libogc.a(lwp.o)
_lwp_mutex_objects  0x28              c:/devkitPro/libogc/lib/wii\libogc.a(mutex.o)
core_context        0x2d0             c:/devkitPro/libogc/lib/wii\libogc.a(lwp_threads.o)
_lwp_tqueue_objects
                    0x28              c:/devkitPro/libogc/lib/wii\libogc.a(lwp.o)

Discarded input sections

 .text          0x00000000        0x0 c:/devkitpro/devkitppc/bin/../lib/gcc/powerpc-gekko/4.2.4/ecrti.o
 .data          0x00000000        0x0 c:/devkitpro/devkitppc/bin/../lib/gcc/powerpc-gekko/4.2.4/ecrti.o
 .bss           0x00000000        0x0 c:/devkitpro/devkitppc/bin/../lib/gcc/powerpc-gekko/4.2.4/ecrti.o
 .got           0x00000000        0x0 c:/devkitpro/devkitppc/bin/../lib/gcc/powerpc-gekko/4.2.4/ecrti.o
 .got1          0x00000000        0x0 c:/devkitpro/devkitppc/bin/../lib/gcc/powerpc-gekko/4.2.4/ecrti.o
 .got2          0x00000000        0x0 c:/devkitpro/devkitppc/bin/../lib/gcc/powerpc-gekko/4.2.4/ecrti.o
 .fixup         0x00000000        0x0 c:/devkitpro/devkitppc/bin/../lib/gcc/powerpc-gekko/4.2.4/ecrti.o
 .sbss          0x00000000        0x0 c:/devkitpro/devkitppc/bin/../lib/gcc/powerpc-gekko/4.2.4/ecrti.o
 .sbss2         0x00000000        0x0 c:/devkitpro/devkitppc/bin/../lib/gcc/powerpc-gekko/4.2.4/ecrti.o
 .gcc_except_table
                0x00000000        0x0 c:/devkitpro/devkitppc/bin/../lib/gcc/powerpc-gekko/4.2.4/ecrti.o
 .data          0x00000000        0x0 c:/devkitpro/devkitppc/bin/../lib/gcc/powerpc-gekko/4.2.4/../../../../powerpc-gekko/lib/crtmain.o
 .bss           0x00000000        0x0 c:/devkitpro/devkitppc/bin/../lib/gcc/powerpc-gekko/4.2.4/../../../../powerpc-gekko/lib/crtmain.o
 .text          0x00000000        0x0 helloworld.o
 .data          0x00000000        0x0 helloworld.o
 .bss           0x00000000        0x0 helloworld.o
 .text          0x00000000        0x0 irc.o
 .data          0x00000000        0x0 irc.o
 .bss           0x00000000        0x0 irc.o
 .text          0x00000000        0x0 pad.o
 .data          0x00000000        0x0 pad.o
 .bss           0x00000000        0x0 pad.o
 .text          0x00000000        0x0 reset.o
 .data          0x00000000        0x0 reset.o
 .bss           0x00000000        0x0 reset.o
 .text.reset    0x00000000        0x0 reset.o
 .text.set_reset_flag
                0x00000000        0x0 reset.o
 .text.set_power_flag
                0x00000000        0x0 reset.o
 .text.poweroff_or_sysmenu
                0x00000000        0x0 reset.o
 .text.die      0x00000000        0x0 reset.o
 .text.initialise_reset_buttons
                0x00000000        0x0 reset.o
 .bss._power    0x00000000        0x0 reset.o
 .rodata.str1.4
                0x00000000        0x0 reset.o
 .text          0x00000000        0x0 tcpflood.o
 .data          0x00000000        0x0 tcpflood.o
 .bss           0x00000000        0x0 tcpflood.o
 .text          0x00000000        0x0 c:/devkitPro/libogc/lib/wii\libwiiuse.a(wpad.o)
 .data          0x00000000        0x0 c:/devkitPro/libogc/lib/wii\libwiiuse.a(wpad.o)
 .bss           0x00000000        0x0 c:/devkitPro/libogc/lib/wii\libwiiuse.a(wpad.o)
 .text.WPAD_DroppedEvents
                0x00000000        0x0 c:/devkitPro/libogc/lib/wii\libwiiuse.a(wpad.o)
 .text.WPAD_GetStatus
                0x00000000        0x0 c:/devkitPro/libogc/lib/wii\libwiiuse.a(wpad.o)
 .text.WPAD_Probe
                0x00000000        0x0 c:/devkitPro/libogc/lib/wii\libwiiuse.a(wpad.o)
 .text.WPAD_SetEventBufs
                0x00000000        0x0 c:/devkitPro/libogc/lib/wii\libwiiuse.a(wpad.o)
 .text.WPAD_SetPowerButtonCallback
                0x00000000        0x0 c:/devkitPro/libogc/lib/wii\libwiiuse.a(wpad.o)
 .text.WPAD_SetBatteryDeadCallback
                0x00000000        0x0 c:/devkitPro/libogc/lib/wii\libwiiuse.a(wpad.o)
 .text.WPAD_SetIdleTimeout
                0x00000000        0x0 c:/devkitPro/libogc/lib/wii\libwiiuse.a(wpad.o)
 .text.WPAD_SetIdleThresholds
                0x00000000        0x0 c:/devkitPro/libogc/lib/wii\libwiiuse.a(wpad.o)
 .text.WPAD_Data
                0x00000000        0x0 c:/devkitPro/libogc/lib/wii\libwiiuse.a(wpad.o)
 .text.WPAD_ButtonsUp
                0x00000000        0x0 c:/devkitPro/libogc/lib/wii\libwiiuse.a(wpad.o)
 .text.WPAD_ButtonsHeld
                0x00000000        0x0 c:/devkitPro/libogc/lib/wii\libwiiuse.a(wpad.o)
 .text.WPAD_IR  0x00000000        0x0 c:/devkitPro/libogc/lib/wii\libwiiuse.a(wpad.o)
 .text.WPAD_Orientation
                0x00000000        0x0 c:/devkitPro/libogc/lib/wii\libwiiuse.a(wpad.o)
 .text.WPAD_GForce
                0x00000000        0x0 c:/devkitPro/libogc/lib/wii\libwiiuse.a(wpad.o)
 .text.WPAD_Accel
                0x00000000        0x0 c:/devkitPro/libogc/lib/wii\libwiiuse.a(wpad.o)
 .text.WPAD_Expansion
                0x00000000        0x0 c:/devkitPro/libogc/lib/wii\libwiiuse.a(wpad.o)
 .text.WPAD_Rumble
                0x00000000        0x0 c:/devkitPro/libogc/lib/wii\libwiiuse.a(wpad.o)
 .text.WPAD_Disconnect
                0x00000000        0x0 c:/devkitPro/libogc/lib/wii\libwiiuse.a(wpad.o)
 .text.WPAD_SetVRes
                0x00000000        0x0 c:/devkitPro/libogc/lib/wii\libwiiuse.a(wpad.o)
 .text.WPAD_SetDataFormat
                0x00000000        0x0 c:/devkitPro/libogc/lib/wii\libwiiuse.a(wpad.o)
 .text.WPAD_Flush
                0x00000000        0x0 c:/devkitPro/libogc/lib/wii\libwiiuse.a(wpad.o)
 .text          0x00000000        0x0 c:/devkitPro/libogc/lib/wii\libwiiuse.a(dynamics.o)
 .data          0x00000000        0x0 c:/devkitPro/libogc/lib/wii\libwiiuse.a(dynamics.o)
 .bss           0x00000000        0x0 c:/devkitPro/libogc/lib/wii\libwiiuse.a(dynamics.o)
 .text          0x00000000        0x0 c:/devkitPro/libogc/lib/wii\libwiiuse.a(io_wii.o)
 .data          0x00000000        0x0 c:/devkitPro/libogc/lib/wii\libwiiuse.a(io_wii.o)
 .bss           0x00000000        0x0 c:/devkitPro/libogc/lib/wii\libwiiuse.a(io_wii.o)
 .text.wiiuse_sensorbar_enable
                0x00000000        0x0 c:/devkitPro/libogc/lib/wii\libwiiuse.a(io_wii.o)
 .text          0x00000000        0x0 c:/devkitPro/libogc/lib/wii\libwiiuse.a(ir.o)
 .data          0x00000000        0x0 c:/devkitPro/libogc/lib/wii\libwiiuse.a(ir.o)
 .bss           0x00000000        0x0 c:/devkitPro/libogc/lib/wii\libwiiuse.a(ir.o)
 .text.wiiuse_set_ir_vres
                0x00000000        0x0 c:/devkitPro/libogc/lib/wii\libwiiuse.a(ir.o)
 .text          0x00000000        0x0 c:/devkitPro/libogc/lib/wii\libwiiuse.a(wiiuse.o)
 .data          0x00000000        0x0 c:/devkitPro/libogc/lib/wii\libwiiuse.a(wiiuse.o)
 .bss           0x00000000        0x0 c:/devkitPro/libogc/lib/wii\libwiiuse.a(wiiuse.o)
 .text.wiiuse_toggle_rumble
                0x00000000        0x0 c:/devkitPro/libogc/lib/wii\libwiiuse.a(wiiuse.o)
 .text.wiiuse_rumble
                0x00000000        0x0 c:/devkitPro/libogc/lib/wii\libwiiuse.a(wiiuse.o)
 .text.wiiuse_write_streamdata
                0x00000000        0x0 c:/devkitPro/libogc/lib/wii\libwiiuse.a(wiiuse.o)
 .text          0x00000000        0x0 c:/devkitPro/libogc/lib/wii\libwiiuse.a(events.o)
 .data          0x00000000        0x0 c:/devkitPro/libogc/lib/wii\libwiiuse.a(events.o)
 .bss           0x00000000        0x0 c:/devkitPro/libogc/lib/wii\libwiiuse.a(events.o)
 .text.idle_cycle
                0x00000000        0x0 c:/devkitPro/libogc/lib/wii\libwiiuse.a(events.o)
 .text          0x00000000        0x0 c:/devkitPro/libogc/lib/wii\libwiiuse.a(guitar_hero_3.o)
 .data          0x00000000        0x0 c:/devkitPro/libogc/lib/wii\libwiiuse.a(guitar_hero_3.o)
 .bss           0x00000000        0x0 c:/devkitPro/libogc/lib/wii\libwiiuse.a(guitar_hero_3.o)
 .text          0x00000000        0x0 c:/devkitPro/libogc/lib/wii\libwiiuse.a(io.o)
 .data          0x00000000        0x0 c:/devkitPro/libogc/lib/wii\libwiiuse.a(io.o)
 .bss           0x00000000        0x0 c:/devkitPro/libogc/lib/wii\libwiiuse.a(io.o)
 .text          0x00000000        0x0 c:/devkitPro/libogc/lib/wii\libwiiuse.a(nunchuk.o)
 .data          0x00000000        0x0 c:/devkitPro/libogc/lib/wii\libwiiuse.a(nunchuk.o)
 .bss           0x00000000        0x0 c:/devkitPro/libogc/lib/wii\libwiiuse.a(nunchuk.o)
 .text          0x00000000        0x0 c:/devkitPro/libogc/lib/wii\libwiiuse.a(wiiboard.o)
 .data          0x00000000        0x0 c:/devkitPro/libogc/lib/wii\libwiiuse.a(wiiboard.o)
 .bss           0x00000000        0x0 c:/devkitPro/libogc/lib/wii\libwiiuse.a(wiiboard.o)
 .text          0x00000000        0x0 c:/devkitPro/libogc/lib/wii\libwiiuse.a(classic.o)
 .data          0x00000000        0x0 c:/devkitPro/libogc/lib/wii\libwiiuse.a(classic.o)
 .bss           0x00000000        0x0 c:/devkitPro/libogc/lib/wii\libwiiuse.a(classic.o)
 .text          0x00000000        0x0 c:/devkitPro/libogc/lib/wii\libbte.a(bte.o)
 .data          0x00000000        0x0 c:/devkitPro/libogc/lib/wii\libbte.a(bte.o)
 .bss           0x00000000        0x0 c:/devkitPro/libogc/lib/wii\libbte.a(bte.o)
 .text.pin_req  0x00000000        0x0 c:/devkitPro/libogc/lib/wii\libbte.a(bte.o)
 .text.link_key_not
                0x00000000        0x0 c:/devkitPro/libogc/lib/wii\libbte.a(bte.o)
 .text.bte_sendmessage
                0x00000000        0x0 c:/devkitPro/libogc/lib/wii\libbte.a(bte.o)
 .text.bte_inquiry_ex
                0x00000000        0x0 c:/devkitPro/libogc/lib/wii\libbte.a(bte.o)
 .text.bte_inquiry
                0x00000000        0x0 c:/devkitPro/libogc/lib/wii\libbte.a(bte.o)
 .text.bte_inquiry_complete
                0x00000000        0x0 c:/devkitPro/libogc/lib/wii\libbte.a(bte.o)
 .text          0x00000000        0x0 c:/devkitPro/libogc/lib/wii\libbte.a(hci.o)
 .data          0x00000000        0x0 c:/devkitPro/libogc/lib/wii\libbte.a(hci.o)
 .bss           0x00000000        0x0 c:/devkitPro/libogc/lib/wii\libbte.a(hci.o)
 .text.hci_pin_req
                0x00000000        0x0 c:/devkitPro/libogc/lib/wii\libbte.a(hci.o)
 .text.hci_link_key_not
                0x00000000        0x0 c:/devkitPro/libogc/lib/wii\libbte.a(hci.o)
 .text.hci_conn_req
                0x00000000        0x0 c:/devkitPro/libogc/lib/wii\libbte.a(hci.o)
 .text.lp_is_connected
                0x00000000        0x0 c:/devkitPro/libogc/lib/wii\libbte.a(hci.o)
 .text.hci_reg_dev_info
                0x00000000        0x0 c:/devkitPro/libogc/lib/wii\libbte.a(hci.o)
 .text.hci_set_hc_to_h_fc
                0x00000000        0x0 c:/devkitPro/libogc/lib/wii\libbte.a(hci.o)
 .text.hci_read_current_lap
                0x00000000        0x0 c:/devkitPro/libogc/lib/wii\libbte.a(hci.o)
 .text.hci_write_stored_link_key
                0x00000000        0x0 c:/devkitPro/libogc/lib/wii\libbte.a(hci.o)
 .text.hci_reject_connection_request
                0x00000000        0x0 c:/devkitPro/libogc/lib/wii\libbte.a(hci.o)
 .text.hci_set_event_mask
                0x00000000        0x0 c:/devkitPro/libogc/lib/wii\libbte.a(hci.o)
 .text.hci_exit_periodic_inquiry
                0x00000000        0x0 c:/devkitPro/libogc/lib/wii\libbte.a(hci.o)
 .text.hci_set_event_filter
                0x00000000        0x0 c:/devkitPro/libogc/lib/wii\libbte.a(hci.o)
 .text.hci_pin_code_request_reply
                0x00000000        0x0 c:/devkitPro/libogc/lib/wii\libbte.a(hci.o)
 .text.hci_inquiry
                0x00000000        0x0 c:/devkitPro/libogc/lib/wii\libbte.a(hci.o)
 .text.lp_connect_req
                0x00000000        0x0 c:/devkitPro/libogc/lib/wii\libbte.a(hci.o)
 .text.hci_sniff_mode
                0x00000000        0x0 c:/devkitPro/libogc/lib/wii\libbte.a(hci.o)
 .text.hci_read_remote_name
                0x00000000        0x0 c:/devkitPro/libogc/lib/wii\libbte.a(hci.o)
 .text.hci_periodic_inquiry
                0x00000000        0x0 c:/devkitPro/libogc/lib/wii\libbte.a(hci.o)
 .sbss.hci_tmp_key
                0x00000000        0x0 c:/devkitPro/libogc/lib/wii\libbte.a(hci.o)
 .text          0x00000000        0x0 c:/devkitPro/libogc/lib/wii\libbte.a(l2cap.o)
 .data          0x00000000        0x0 c:/devkitPro/libogc/lib/wii\libbte.a(l2cap.o)
 .bss           0x00000000        0x0 c:/devkitPro/libogc/lib/wii\libbte.a(l2cap.o)
 .text.l2cap_timeout_ind
                0x00000000        0x0 c:/devkitPro/libogc/lib/wii\libbte.a(l2cap.o)
 .text.l2ca_ping
                0x00000000        0x0 c:/devkitPro/libogc/lib/wii\libbte.a(l2cap.o)
 .text.l2ca_connect_req
                0x00000000        0x0 c:/devkitPro/libogc/lib/wii\libbte.a(l2cap.o)
 .text          0x00000000        0x0 c:/devkitPro/libogc/lib/wii\libbte.a(btmemb.o)
 .data          0x00000000        0x0 c:/devkitPro/libogc/lib/wii\libbte.a(btmemb.o)
 .bss           0x00000000        0x0 c:/devkitPro/libogc/lib/wii\libbte.a(btmemb.o)
 .text.btmemb_ref
                0x00000000        0x0 c:/devkitPro/libogc/lib/wii\libbte.a(btmemb.o)
 .text          0x00000000        0x0 c:/devkitPro/libogc/lib/wii\libbte.a(btmemr.o)
 .data          0x00000000        0x0 c:/devkitPro/libogc/lib/wii\libbte.a(btmemr.o)
 .bss           0x00000000        0x0 c:/devkitPro/libogc/lib/wii\libbte.a(btmemr.o)
 .text.btmemr_reallocm
                0x00000000        0x0 c:/devkitPro/libogc/lib/wii\libbte.a(btmemr.o)
 .text          0x00000000        0x0 c:/devkitPro/libogc/lib/wii\libbte.a(btpbuf.o)
 .data          0x00000000        0x0 c:/devkitPro/libogc/lib/wii\libbte.a(btpbuf.o)
 .bss           0x00000000        0x0 c:/devkitPro/libogc/lib/wii\libbte.a(btpbuf.o)
 .text.btpbuf_clen
                0x00000000        0x0 c:/devkitPro/libogc/lib/wii\libbte.a(btpbuf.o)
 .text.btpbuf_queue
                0x00000000        0x0 c:/devkitPro/libogc/lib/wii\libbte.a(btpbuf.o)
 .text.btpbuf_dequeue
                0x00000000        0x0 c:/devkitPro/libogc/lib/wii\libbte.a(btpbuf.o)
 .text          0x00000000        0x0 c:/devkitPro/libogc/lib/wii\libbte.a(physbusif.o)
 .data          0x00000000        0x0 c:/devkitPro/libogc/lib/wii\libbte.a(physbusif.o)
 .bss           0x00000000        0x0 c:/devkitPro/libogc/lib/wii\libbte.a(physbusif.o)
 .text.__ntd_set_ohci
                0x00000000        0x0 c:/devkitPro/libogc/lib/wii\libbte.a(physbusif.o)
 .text.__ntd_set_pid_vid
                0x00000000        0x0 c:/devkitPro/libogc/lib/wii\libbte.a(physbusif.o)
 .text          0x00000000        0x0 c:/devkitPro/libogc/lib/wii\libogc.a(console.o)
 .data          0x00000000        0x0 c:/devkitPro/libogc/lib/wii\libogc.a(console.o)
 .bss           0x00000000        0x0 c:/devkitPro/libogc/lib/wii\libogc.a(console.o)
 .text.CON_GetMetrics
                0x00000000        0x0 c:/devkitPro/libogc/lib/wii\libogc.a(console.o)
 .text.CON_GetPosition
                0x00000000        0x0 c:/devkitPro/libogc/lib/wii\libogc.a(console.o)
 .text.CON_EnableGecko
                0x00000000        0x0 c:/devkitPro/libogc/lib/wii\libogc.a(console.o)
 .text.__console_init_ex
                0x00000000        0x0 c:/devkitPro/libogc/lib/wii\libogc.a(console.o)
 .text.CON_InitEx
                0x00000000        0x0 c:/devkitPro/libogc/lib/wii\libogc.a(console.o)
 .text.__console_vipostcb
                0x00000000        0x0 c:/devkitPro/libogc/lib/wii\libogc.a(console.o)
 .sbss._console_buffer
                0x00000000        0x0 c:/devkitPro/libogc/lib/wii\libogc.a(console.o)
 .text          0x00000000        0x0 c:/devkitPro/libogc/lib/wii\libogc.a(lwp_queue.o)
 .data          0x00000000        0x0 c:/devkitPro/libogc/lib/wii\libogc.a(lwp_queue.o)
 .bss           0x00000000        0x0 c:/devkitPro/libogc/lib/wii\libogc.a(lwp_queue.o)
 .text.__lwp_queue_extract
                0x00000000        0x0 c:/devkitPro/libogc/lib/wii\libogc.a(lwp_queue.o)
 .text.__lwp_queue_insert
                0x00000000        0x0 c:/devkitPro/libogc/lib/wii\libogc.a(lwp_queue.o)
 .text          0x00000000        0x0 c:/devkitPro/libogc/lib/wii\libogc.a(lwp_threads.o)
 .data          0x00000000        0x0 c:/devkitPro/libogc/lib/wii\libogc.a(lwp_threads.o)
 .bss           0x00000000        0x0 c:/devkitPro/libogc/lib/wii\libogc.a(lwp_threads.o)
 .text.__lwp_thread_yield
                0x00000000        0x0 c:/devkitPro/libogc/lib/wii\libogc.a(lwp_threads.o)
 .text.__lwp_rotate_readyqueue
                0x00000000        0x0 c:/devkitPro/libogc/lib/wii\libogc.a(lwp_threads.o)
 .text.__lwp_evaluatemode
                0x00000000        0x0 c:/devkitPro/libogc/lib/wii\libogc.a(lwp_threads.o)
 .text.__lwp_thread_resume
                0x00000000        0x0 c:/devkitPro/libogc/lib/wii\libogc.a(lwp_threads.o)
 .text.__lwp_thread_suspend
                0x00000000        0x0 c:/devkitPro/libogc/lib/wii\libogc.a(lwp_threads.o)
 .text          0x00000000        0x0 c:/devkitPro/libogc/lib/wii\libogc.a(lwp.o)
 .data          0x00000000        0x0 c:/devkitPro/libogc/lib/wii\libogc.a(lwp.o)
 .bss           0x00000000        0x0 c:/devkitPro/libogc/lib/wii\libogc.a(lwp.o)
 .text.__lwp_thread_currentid
                0x00000000        0x0 c:/devkitPro/libogc/lib/wii\libogc.a(lwp.o)
 .text.LWP_GetSelf
                0x00000000        0x0 c:/devkitPro/libogc/lib/wii\libogc.a(lwp.o)
 .text.__lwp_thread_context
                0x00000000        0x0 c:/devkitPro/libogc/lib/wii\libogc.a(lwp.o)
 .text.__lwp_thread_exists
                0x00000000        0x0 c:/devkitPro/libogc/lib/wii\libogc.a(lwp.o)
 .text.__lwp_thread_isalive
                0x00000000        0x0 c:/devkitPro/libogc/lib/wii\libogc.a(lwp.o)
 .text.LWP_JoinThread
                0x00000000        0x0 c:/devkitPro/libogc/lib/wii\libogc.a(lwp.o)
 .text.LWP_ThreadIsSuspended
                0x00000000        0x0 c:/devkitPro/libogc/lib/wii\libogc.a(lwp.o)
 .text.LWP_Reschedule
                0x00000000        0x0 c:/devkitPro/libogc/lib/wii\libogc.a(lwp.o)
 .text.LWP_YieldThread
                0x00000000        0x0 c:/devkitPro/libogc/lib/wii\libogc.a(lwp.o)
 .text.LWP_SetThreadPriority
                0x00000000        0x0 c:/devkitPro/libogc/lib/wii\libogc.a(lwp.o)
 .text.LWP_ResumeThread
                0x00000000        0x0 c:/devkitPro/libogc/lib/wii\libogc.a(lwp.o)
 .text.LWP_SuspendThread
                0x00000000        0x0 c:/devkitPro/libogc/lib/wii\libogc.a(lwp.o)
 .data          0x00000000        0x0 c:/devkitPro/libogc/lib/wii\libogc.a(lwp_handler.o)
 .bss           0x00000000        0x0 c:/devkitPro/libogc/lib/wii\libogc.a(lwp_handler.o)
 .text          0x00000000        0x0 c:/devkitPro/libogc/lib/wii\libogc.a(lwp_stack.o)
 .data          0x00000000        0x0 c:/devkitPro/libogc/lib/wii\libogc.a(lwp_stack.o)
 .bss           0x00000000        0x0 c:/devkitPro/libogc/lib/wii\libogc.a(lwp_stack.o)
 .text          0x00000000        0x0 c:/devkitPro/libogc/lib/wii\libogc.a(lwp_watchdog.o)
 .data          0x00000000        0x0 c:/devkitPro/libogc/lib/wii\libogc.a(lwp_watchdog.o)
 .bss           0x00000000        0x0 c:/devkitPro/libogc/lib/wii\libogc.a(lwp_watchdog.o)
 .text.__lwp_wd_adjust
                0x00000000        0x0 c:/devkitPro/libogc/lib/wii\libogc.a(lwp_watchdog.o)
 .text          0x00000000        0x0 c:/devkitPro/libogc/lib/wii\libogc.a(lwp_wkspace.o)
 .data          0x00000000        0x0 c:/devkitPro/libogc/lib/wii\libogc.a(lwp_wkspace.o)
 .bss           0x00000000        0x0 c:/devkitPro/libogc/lib/wii\libogc.a(lwp_wkspace.o)
 .text.__lwp_wkspace_heapsize
                0x00000000        0x0 c:/devkitPro/libogc/lib/wii\libogc.a(lwp_wkspace.o)
 .text.__lwp_wkspace_heapused
                0x00000000        0x0 c:/devkitPro/libogc/lib/wii\libogc.a(lwp_wkspace.o)
 .text.__lwp_wkspace_heapfree
                0x00000000        0x0 c:/devkitPro/libogc/lib/wii\libogc.a(lwp_wkspace.o)
 .bss.__wkspace_iblock
                0x00000000        0x0 c:/devkitPro/libogc/lib/wii\libogc.a(lwp_wkspace.o)
 .text          0x00000000        0x0 c:/devkitPro/libogc/lib/wii\libogc.a(lwp_objmgr.o)
 .data          0x00000000        0x0 c:/devkitPro/libogc/lib/wii\libogc.a(lwp_objmgr.o)
 .bss           0x00000000        0x0 c:/devkitPro/libogc/lib/wii\libogc.a(lwp_objmgr.o)
 .text.__lwp_objmgr_memsize
                0x00000000        0x0 c:/devkitPro/libogc/lib/wii\libogc.a(lwp_objmgr.o)
 .text          0x00000000        0x0 c:/devkitPro/libogc/lib/wii\libogc.a(lwp_heap.o)
 .data          0x00000000        0x0 c:/devkitPro/libogc/lib/wii\libogc.a(lwp_heap.o)
 .bss           0x00000000        0x0 c:/devkitPro/libogc/lib/wii\libogc.a(lwp_heap.o)
 .text.__lwp_heap_getinfo
                0x00000000        0x0 c:/devkitPro/libogc/lib/wii\libogc.a(lwp_heap.o)
 .text          0x00000000        0x0 c:/devkitPro/libogc/lib/wii\libogc.a(sys_state.o)
 .data          0x00000000        0x0 c:/devkitPro/libogc/lib/wii\libogc.a(sys_state.o)
 .bss           0x00000000        0x0 c:/devkitPro/libogc/lib/wii\libogc.a(sys_state.o)
 .text          0x00000000        0x0 c:/devkitPro/libogc/lib/wii\libogc.a(irq.o)
 .data          0x00000000        0x0 c:/devkitPro/libogc/lib/wii\libogc.a(irq.o)
 .bss           0x00000000        0x0 c:/devkitPro/libogc/lib/wii\libogc.a(irq.o)
 .text.IRQ_Free
                0x00000000        0x0 c:/devkitPro/libogc/lib/wii\libogc.a(irq.o)
 .text          0x00000000        0x0 c:/devkitPro/libogc/lib/wii\libogc.a(video.o)
 .data          0x00000000        0x0 c:/devkitPro/libogc/lib/wii\libogc.a(video.o)
 .bss           0x00000000        0x0 c:/devkitPro/libogc/lib/wii\libogc.a(video.o)
 .text.VIDEO_GetNextFramebuffer
                0x00000000        0x0 c:/devkitPro/libogc/lib/wii\libogc.a(video.o)
 .text.VIDEO_GetCurrentFramebuffer
                0x00000000        0x0 c:/devkitPro/libogc/lib/wii\libogc.a(video.o)
 .text.VIDEO_SetPreRetraceCallback
                0x00000000        0x0 c:/devkitPro/libogc/lib/wii\libogc.a(video.o)
 .text.VIDEO_SetPostRetraceCallback
                0x00000000        0x0 c:/devkitPro/libogc/lib/wii\libogc.a(video.o)
 .text.VIDEO_ClearFrameBuffer
                0x00000000        0x0 c:/devkitPro/libogc/lib/wii\libogc.a(video.o)
 .text.VIDEO_GetNextField
                0x00000000        0x0 c:/devkitPro/libogc/lib/wii\libogc.a(video.o)
 .text.VIDEO_SetNextRightFramebuffer
                0x00000000        0x0 c:/devkitPro/libogc/lib/wii\libogc.a(video.o)
 .data.TVPal264IntAa
                0x00000000        0x0 c:/devkitPro/libogc/lib/wii\libogc.a(video.o)
 .data.TVPal264DsAa
                0x00000000        0x0 c:/devkitPro/libogc/lib/wii\libogc.a(video.o)
 .data.TVNtsc480Int
                0x00000000        0x0 c:/devkitPro/libogc/lib/wii\libogc.a(video.o)
 .data.TVNtsc240IntAa
                0x00000000        0x0 c:/devkitPro/libogc/lib/wii\libogc.a(video.o)
 .data.TVNtsc480IntAa
                0x00000000        0x0 c:/devkitPro/libogc/lib/wii\libogc.a(video.o)
 .data.TVEurgb60Hz480ProgSoft
                0x00000000        0x0 c:/devkitPro/libogc/lib/wii\libogc.a(video.o)
 .data.TVEurgb60Hz480IntDf
                0x00000000        0x0 c:/devkitPro/libogc/lib/wii\libogc.a(video.o)
 .data.TVNtsc480ProgSoft
                0x00000000        0x0 c:/devkitPro/libogc/lib/wii\libogc.a(video.o)
 .data.TVEurgb60Hz240Int
                0x00000000        0x0 c:/devkitPro/libogc/lib/wii\libogc.a(video.o)
 .data.TVPal528Int
                0x00000000        0x0 c:/devkitPro/libogc/lib/wii\libogc.a(video.o)
 .data.TVNtsc480ProgAa
                0x00000000        0x0 c:/devkitPro/libogc/lib/wii\libogc.a(video.o)
 .data.TVPal264Ds
                0x00000000        0x0 c:/devkitPro/libogc/lib/wii\libogc.a(video.o)
 .data.TVNtsc240Int
                0x00000000        0x0 c:/devkitPro/libogc/lib/wii\libogc.a(video.o)
 .data.TVNtsc240Ds
                0x00000000        0x0 c:/devkitPro/libogc/lib/wii\libogc.a(video.o)
 .data.TVEurgb60Hz240IntAa
                0x00000000        0x0 c:/devkitPro/libogc/lib/wii\libogc.a(video.o)
 .data.TVPal264Int
                0x00000000        0x0 c:/devkitPro/libogc/lib/wii\libogc.a(video.o)
 .data.TVEurgb60Hz240Ds
                0x00000000        0x0 c:/devkitPro/libogc/lib/wii\libogc.a(video.o)
 .data.TVEurgb60Hz480Prog
                0x00000000        0x0 c:/devkitPro/libogc/lib/wii\libogc.a(video.o)
 .data.TVPal524IntAa
                0x00000000        0x0 c:/devkitPro/libogc/lib/wii\libogc.a(video.o)
 .data.TVNtsc240DsAa
                0x00000000        0x0 c:/devkitPro/libogc/lib/wii\libogc.a(video.o)
 .data.TVEurgb60Hz480ProgAa
                0x00000000        0x0 c:/devkitPro/libogc/lib/wii\libogc.a(video.o)
 .data.TVEurgb60Hz480IntAa
                0x00000000        0x0 c:/devkitPro/libogc/lib/wii\libogc.a(video.o)
 .data.TVEurgb60Hz240DsAa
                0x00000000        0x0 c:/devkitPro/libogc/lib/wii\libogc.a(video.o)
 .data.TVPal574IntDfScale
                0x00000000        0x0 c:/devkitPro/libogc/lib/wii\libogc.a(video.o)
 .text          0x00000000        0x0 c:/devkitPro/libogc/lib/wii\libogc.a(pad.o)
 .data          0x00000000        0x0 c:/devkitPro/libogc/lib/wii\libogc.a(pad.o)
 .bss           0x00000000        0x0 c:/devkitPro/libogc/lib/wii\libogc.a(pad.o)
 .text.SPEC0_MakeStatus
                0x00000000        0x0 c:/devkitPro/libogc/lib/wii\libogc.a(pad.o)
 .text.SPEC1_MakeStatus
                0x00000000        0x0 c:/devkitPro/libogc/lib/wii\libogc.a(pad.o)
 .text.__pad_clampS8
                0x00000000        0x0 c:/devkitPro/libogc/lib/wii\libogc.a(pad.o)
 .text.__pad_clampU8
                0x00000000        0x0 c:/devkitPro/libogc/lib/wii\libogc.a(pad.o)
 .text.SPEC2_MakeStatus
                0x00000000        0x0 c:/devkitPro/libogc/lib/wii\libogc.a(pad.o)
 .text.__pad_clampstick
                0x00000000        0x0 c:/devkitPro/libogc/lib/wii\libogc.a(pad.o)
 .text.__pad_clamptrigger
                0x00000000        0x0 c:/devkitPro/libogc/lib/wii\libogc.a(pad.o)
 .text.__pad_samplinghandler
                0x00000000        0x0 c:/devkitPro/libogc/lib/wii\libogc.a(pad.o)
 .text.PAD_Recalibrate
                0x00000000        0x0 c:/devkitPro/libogc/lib/wii\libogc.a(pad.o)
 .text.PAD_SetSpec
                0x00000000        0x0 c:/devkitPro/libogc/lib/wii\libogc.a(pad.o)
 .text.PAD_Clamp
                0x00000000        0x0 c:/devkitPro/libogc/lib/wii\libogc.a(pad.o)
 .text.PAD_ButtonsUp
                0x00000000        0x0 c:/devkitPro/libogc/lib/wii\libogc.a(pad.o)
 .text.PAD_ButtonsHeld
                0x00000000        0x0 c:/devkitPro/libogc/lib/wii\libogc.a(pad.o)
 .text.PAD_SubStickX
                0x00000000        0x0 c:/devkitPro/libogc/lib/wii\libogc.a(pad.o)
 .text.PAD_SubStickY
                0x00000000        0x0 c:/devkitPro/libogc/lib/wii\libogc.a(pad.o)
 .text.PAD_StickX
                0x00000000        0x0 c:/devkitPro/libogc/lib/wii\libogc.a(pad.o)
 .text.PAD_StickY
                0x00000000        0x0 c:/devkitPro/libogc/lib/wii\libogc.a(pad.o)
 .text.PAD_TriggerL
                0x00000000        0x0 c:/devkitPro/libogc/lib/wii\libogc.a(pad.o)
 .text.PAD_TriggerR
                0x00000000        0x0 c:/devkitPro/libogc/lib/wii\libogc.a(pad.o)
 .text.PAD_SetSamplingCallback
                0x00000000        0x0 c:/devkitPro/libogc/lib/wii\libogc.a(pad.o)
 .text.PAD_ControlMotor
                0x00000000        0x0 c:/devkitPro/libogc/lib/wii\libogc.a(pad.o)
 .text.PAD_Sync
                0x00000000        0x0 c:/devkitPro/libogc/lib/wii\libogc.a(pad.o)
 .text.__pad_onreset
                0x00000000        0x0 c:/devkitPro/libogc/lib/wii\libogc.a(pad.o)
 .text.PAD_Init
                0x00000000        0x0 c:/devkitPro/libogc/lib/wii\libogc.a(pad.o)
 .data.pad_resetinfo
                0x00000000        0x0 c:/devkitPro/libogc/lib/wii\libogc.a(pad.o)
 .sbss.__pad_samplingcallback
                0x00000000        0x0 c:/devkitPro/libogc/lib/wii\libogc.a(pad.o)
 .sbss.__pad_initialized
                0x00000000        0x0 c:/devkitPro/libogc/lib/wii\libogc.a(pad.o)
 .sbss.__pad_recalibrated$207
                0x00000000        0x0 c:/devkitPro/libogc/lib/wii\libogc.a(pad.o)
 .text          0x00000000        0x0 c:/devkitPro/libogc/lib/wii\libogc.a(system.o)
 .data          0x00000000        0x0 c:/devkitPro/libogc/lib/wii\libogc.a(system.o)
 .bss           0x00000000        0x0 c:/devkitPro/libogc/lib/wii\libogc.a(system.o)
 .text.__SYS_LockSram
                0x00000000        0x0 c:/devkitPro/libogc/lib/wii\libogc.a(system.o)
 .text.__SYS_SyncSram
                0x00000000        0x0 c:/devkitPro/libogc/lib/wii\libogc.a(system.o)
 .text.__sdloader_boot
                0x00000000        0x0 c:/devkitPro/libogc/lib/wii\libogc.a(system.o)
 .text.SYS_GetArena1Size
                0x00000000        0x0 c:/devkitPro/libogc/lib/wii\libogc.a(system.o)
 .text.SYS_AllocArena1MemLo
                0x00000000        0x0 c:/devkitPro/libogc/lib/wii\libogc.a(system.o)
 .text.SYS_GetArena2Size
                0x00000000        0x0 c:/devkitPro/libogc/lib/wii\libogc.a(system.o)
 .text.SYS_AllocArena2MemLo
                0x00000000        0x0 c:/devkitPro/libogc/lib/wii\libogc.a(system.o)
 .text.SYS_GetFontTexture
                0x00000000        0x0 c:/devkitPro/libogc/lib/wii\libogc.a(system.o)
 .text.SYS_GetFontTexel
                0x00000000        0x0 c:/devkitPro/libogc/lib/wii\libogc.a(system.o)
 .text.SYS_SetResetCallback
                0x00000000        0x0 c:/devkitPro/libogc/lib/wii\libogc.a(system.o)
 .text.SYS_SetPowerCallback
                0x00000000        0x0 c:/devkitPro/libogc/lib/wii\libogc.a(system.o)
 .text.SYS_StartPMC
                0x00000000        0x0 c:/devkitPro/libogc/lib/wii\libogc.a(system.o)
 .text.SYS_StopPMC
                0x00000000        0x0 c:/devkitPro/libogc/lib/wii\libogc.a(system.o)
 .text.SYS_ResetPMC
                0x00000000        0x0 c:/devkitPro/libogc/lib/wii\libogc.a(system.o)
 .text.SYS_DumpPMC
                0x00000000        0x0 c:/devkitPro/libogc/lib/wii\libogc.a(system.o)
 .text.__SYS_GetSystemTime
                0x00000000        0x0 c:/devkitPro/libogc/lib/wii\libogc.a(system.o)
 .text.SYS_GetFontEncoding
                0x00000000        0x0 c:/devkitPro/libogc/lib/wii\libogc.a(system.o)
 .text.SYS_ProtectRange
                0x00000000        0x0 c:/devkitPro/libogc/lib/wii\libogc.a(system.o)
 .text.__SYS_SetTime
                0x00000000        0x0 c:/devkitPro/libogc/lib/wii\libogc.a(system.o)
 .text.__getrtc
                0x00000000        0x0 c:/devkitPro/libogc/lib/wii\libogc.a(system.o)
 .text.__SYS_GetRTC
                0x00000000        0x0 c:/devkitPro/libogc/lib/wii\libogc.a(system.o)
 .text.__SYS_ReadROM
                0x00000000        0x0 c:/devkitPro/libogc/lib/wii\libogc.a(system.o)
 .text.__SYS_LoadFont
                0x00000000        0x0 c:/devkitPro/libogc/lib/wii\libogc.a(system.o)
 .text.SYS_InitFont
                0x00000000        0x0 c:/devkitPro/libogc/lib/wii\libogc.a(system.o)
 .text.__SYS_UnlockSram
                0x00000000        0x0 c:/devkitPro/libogc/lib/wii\libogc.a(system.o)
 .text.__SYS_SetBootTime
                0x00000000        0x0 c:/devkitPro/libogc/lib/wii\libogc.a(system.o)
 .sbss.sys_fontimage
                0x00000000        0x0 c:/devkitPro/libogc/lib/wii\libogc.a(system.o)
 .sbss.sys_fontcharsinsheet
                0x00000000        0x0 c:/devkitPro/libogc/lib/wii\libogc.a(system.o)
 .sdata.sys_fontenc
                0x00000000        0x0 c:/devkitPro/libogc/lib/wii\libogc.a(system.o)
 .sbss.sys_fontdata
                0x00000000        0x0 c:/devkitPro/libogc/lib/wii\libogc.a(system.o)
 .sbss.sys_fontarea
                0x00000000        0x0 c:/devkitPro/libogc/lib/wii\libogc.a(system.o)
 .sbss.sys_fontwidthtab
                0x00000000        0x0 c:/devkitPro/libogc/lib/wii\libogc.a(system.o)
 .data          0x00000000        0x0 c:/devkitPro/libogc/lib/wii\libogc.a(system_asm.o)
 .bss           0x00000000        0x0 c:/devkitPro/libogc/lib/wii\libogc.a(system_asm.o)
 .text          0x00000000        0x0 c:/devkitPro/libogc/lib/wii\libogc.a(cond.o)
 .data          0x00000000        0x0 c:/devkitPro/libogc/lib/wii\libogc.a(cond.o)
 .bss           0x00000000        0x0 c:/devkitPro/libogc/lib/wii\libogc.a(cond.o)
 .text.LWP_CondDestroy
                0x00000000        0x0 c:/devkitPro/libogc/lib/wii\libogc.a(cond.o)
 .text.LWP_CondInit
                0x00000000        0x0 c:/devkitPro/libogc/lib/wii\libogc.a(cond.o)
 .text.__lwp_cond_signalsupp
                0x00000000        0x0 c:/devkitPro/libogc/lib/wii\libogc.a(cond.o)
 .text.LWP_CondBroadcast
                0x00000000        0x0 c:/devkitPro/libogc/lib/wii\libogc.a(cond.o)
 .text.LWP_CondSignal
                0x00000000        0x0 c:/devkitPro/libogc/lib/wii\libogc.a(cond.o)
 .text.__lwp_cond_waitsupp
                0x00000000        0x0 c:/devkitPro/libogc/lib/wii\libogc.a(cond.o)
 .text.LWP_CondTimedWait
                0x00000000        0x0 c:/devkitPro/libogc/lib/wii\libogc.a(cond.o)
 .text.LWP_CondWait
                0x00000000        0x0 c:/devkitPro/libogc/lib/wii\libogc.a(cond.o)
 .text          0x00000000        0x0 c:/devkitPro/libogc/lib/wii\libogc.a(decrementer.o)
 .data          0x00000000        0x0 c:/devkitPro/libogc/lib/wii\libogc.a(decrementer.o)
 .bss           0x00000000        0x0 c:/devkitPro/libogc/lib/wii\libogc.a(decrementer.o)
 .text          0x00000000        0x0 c:/devkitPro/libogc/lib/wii\libogc.a(message.o)
 .data          0x00000000        0x0 c:/devkitPro/libogc/lib/wii\libogc.a(message.o)
 .bss           0x00000000        0x0 c:/devkitPro/libogc/lib/wii\libogc.a(message.o)
 .text.MQ_Close
                0x00000000        0x0 c:/devkitPro/libogc/lib/wii\libogc.a(message.o)
 .text.MQ_Init  0x00000000        0x0 c:/devkitPro/libogc/lib/wii\libogc.a(message.o)
 .text.MQ_Jam   0x00000000        0x0 c:/devkitPro/libogc/lib/wii\libogc.a(message.o)
 .text.MQ_Receive
                0x00000000        0x0 c:/devkitPro/libogc/lib/wii\libogc.a(message.o)
 .text.MQ_Send  0x00000000        0x0 c:/devkitPro/libogc/lib/wii\libogc.a(message.o)
 .text          0x00000000        0x0 c:/devkitPro/libogc/lib/wii\libogc.a(si.o)
 .data          0x00000000        0x0 c:/devkitPro/libogc/lib/wii\libogc.a(si.o)
 .bss           0x00000000        0x0 c:/devkitPro/libogc/lib/wii\libogc.a(si.o)
 .text.SI_Busy  0x00000000        0x0 c:/devkitPro/libogc/lib/wii\libogc.a(si.o)
 .text.SI_GetCommand
                0x00000000        0x0 c:/devkitPro/libogc/lib/wii\libogc.a(si.o)
 .text.SI_EnablePollingInterrupt
                0x00000000        0x0 c:/devkitPro/libogc/lib/wii\libogc.a(si.o)
 .text.SI_UnregisterPollingHandler
                0x00000000        0x0 c:/devkitPro/libogc/lib/wii\libogc.a(si.o)
 .text.SI_RegisterPollingHandler
                0x00000000        0x0 c:/devkitPro/libogc/lib/wii\libogc.a(si.o)
 .text.SI_Sync  0x00000000        0x0 c:/devkitPro/libogc/lib/wii\libogc.a(si.o)
 .text          0x00000000        0x0 c:/devkitPro/libogc/lib/wii\libogc.a(ipc.o)
 .data          0x00000000        0x0 c:/devkitPro/libogc/lib/wii\libogc.a(ipc.o)
 .bss           0x00000000        0x0 c:/devkitPro/libogc/lib/wii\libogc.a(ipc.o)
 .text.iosDestroyHeap
                0x00000000        0x0 c:/devkitPro/libogc/lib/wii\libogc.a(ipc.o)
 .text.IPC_SetBufferHi
                0x00000000        0x0 c:/devkitPro/libogc/lib/wii\libogc.a(ipc.o)
 .text.__IPC_Reinitialize
                0x00000000        0x0 c:/devkitPro/libogc/lib/wii\libogc.a(ipc.o)
 .text.IOS_IoctlvRebootBackground
                0x00000000        0x0 c:/devkitPro/libogc/lib/wii\libogc.a(ipc.o)
 .text.IOS_OpenAsync
                0x00000000        0x0 c:/devkitPro/libogc/lib/wii\libogc.a(ipc.o)
 .text.IOS_ReadAsync
                0x00000000        0x0 c:/devkitPro/libogc/lib/wii\libogc.a(ipc.o)
 .text.IOS_IoctlvFormatAsync
                0x00000000        0x0 c:/devkitPro/libogc/lib/wii\libogc.a(ipc.o)
 .text.IOS_SeekAsync
                0x00000000        0x0 c:/devkitPro/libogc/lib/wii\libogc.a(ipc.o)
 .text.IOS_Seek
                0x00000000        0x0 c:/devkitPro/libogc/lib/wii\libogc.a(ipc.o)
 .text.IOS_WriteAsync
                0x00000000        0x0 c:/devkitPro/libogc/lib/wii\libogc.a(ipc.o)
 .text          0x00000000        0x0 c:/devkitPro/libogc/lib/wii\libogc.a(ogc_crt0.o)
 .text          0x00000000        0x0 c:/devkitPro/libogc/lib/wii\libogc.a(console_font_8x16.o)
 .data          0x00000000        0x0 c:/devkitPro/libogc/lib/wii\libogc.a(console_font_8x16.o)
 .bss           0x00000000        0x0 c:/devkitPro/libogc/lib/wii\libogc.a(console_font_8x16.o)
 .text          0x00000000        0x0 c:/devkitPro/libogc/lib/wii\libogc.a(timesupp.o)
 .data          0x00000000        0x0 c:/devkitPro/libogc/lib/wii\libogc.a(timesupp.o)
 .bss           0x00000000        0x0 c:/devkitPro/libogc/lib/wii\libogc.a(timesupp.o)
 .text.settime  0x00000000        0x0 c:/devkitPro/libogc/lib/wii\libogc.a(timesupp.o)
 .text.diff_sec
                0x00000000        0x0 c:/devkitPro/libogc/lib/wii\libogc.a(timesupp.o)
 .text.diff_msec
                0x00000000        0x0 c:/devkitPro/libogc/lib/wii\libogc.a(timesupp.o)
 .text.diff_nsec
                0x00000000        0x0 c:/devkitPro/libogc/lib/wii\libogc.a(timesupp.o)
 .text.timespec_substract
                0x00000000        0x0 c:/devkitPro/libogc/lib/wii\libogc.a(timesupp.o)
 .text.timespec_to_ticks
                0x00000000        0x0 c:/devkitPro/libogc/lib/wii\libogc.a(timesupp.o)
 .text.clock    0x00000000        0x0 c:/devkitPro/libogc/lib/wii\libogc.a(timesupp.o)
 .text.__time_exi_unlock
                0x00000000        0x0 c:/devkitPro/libogc/lib/wii\libogc.a(timesupp.o)
 .text.__getrtc
                0x00000000        0x0 c:/devkitPro/libogc/lib/wii\libogc.a(timesupp.o)
 .text.time     0x00000000        0x0 c:/devkitPro/libogc/lib/wii\libogc.a(timesupp.o)
 .text.sleep    0x00000000        0x0 c:/devkitPro/libogc/lib/wii\libogc.a(timesupp.o)
 .text.clock_gettime
                0x00000000        0x0 c:/devkitPro/libogc/lib/wii\libogc.a(timesupp.o)
 .text          0x00000000        0x0 c:/devkitPro/libogc/lib/wii\libogc.a(lock_supp.o)
 .data          0x00000000        0x0 c:/devkitPro/libogc/lib/wii\libogc.a(lock_supp.o)
 .bss           0x00000000        0x0 c:/devkitPro/libogc/lib/wii\libogc.a(lock_supp.o)
 .text          0x00000000        0x0 c:/devkitPro/libogc/lib/wii\libogc.a(newlibc.o)
 .data          0x00000000        0x0 c:/devkitPro/libogc/lib/wii\libogc.a(newlibc.o)
 .bss           0x00000000        0x0 c:/devkitPro/libogc/lib/wii\libogc.a(newlibc.o)
 .text.__libc_wrapup
                0x00000000        0x0 c:/devkitPro/libogc/lib/wii\libogc.a(newlibc.o)
 .text          0x00000000        0x0 c:/devkitPro/libogc/lib/wii\libogc.a(usbgecko.o)
 .data          0x00000000        0x0 c:/devkitPro/libogc/lib/wii\libogc.a(usbgecko.o)
 .bss           0x00000000        0x0 c:/devkitPro/libogc/lib/wii\libogc.a(usbgecko.o)
 .text.__usb_recvbyte
                0x00000000        0x0 c:/devkitPro/libogc/lib/wii\libogc.a(usbgecko.o)
 .text.usb_flush
                0x00000000        0x0 c:/devkitPro/libogc/lib/wii\libogc.a(usbgecko.o)
 .text.usb_recvbuffer
                0x00000000        0x0 c:/devkitPro/libogc/lib/wii\libogc.a(usbgecko.o)
 .text.usb_isgeckoalive
                0x00000000        0x0 c:/devkitPro/libogc/lib/wii\libogc.a(usbgecko.o)
 .text.__usb_checkrecv
                0x00000000        0x0 c:/devkitPro/libogc/lib/wii\libogc.a(usbgecko.o)
 .text.usb_recvbuffer_safe
                0x00000000        0x0 c:/devkitPro/libogc/lib/wii\libogc.a(usbgecko.o)
 .text          0x00000000        0x0 c:/devkitPro/libogc/lib/wii\libogc.a(sbrk.o)
 .data          0x00000000        0x0 c:/devkitPro/libogc/lib/wii\libogc.a(sbrk.o)
 .bss           0x00000000        0x0 c:/devkitPro/libogc/lib/wii\libogc.a(sbrk.o)
 .text          0x00000000        0x0 c:/devkitPro/libogc/lib/wii\libogc.a(malloc_lock.o)
 .data          0x00000000        0x0 c:/devkitPro/libogc/lib/wii\libogc.a(malloc_lock.o)
 .bss           0x00000000        0x0 c:/devkitPro/libogc/lib/wii\libogc.a(malloc_lock.o)
 .text          0x00000000        0x0 c:/devkitPro/libogc/lib/wii\libogc.a(stm.o)
 .data          0x00000000        0x0 c:/devkitPro/libogc/lib/wii\libogc.a(stm.o)
 .bss           0x00000000        0x0 c:/devkitPro/libogc/lib/wii\libogc.a(stm.o)
 .text          0x00000000        0x0 c:/devkitPro/libogc/lib/wii\libogc.a(ios.o)
 .data          0x00000000        0x0 c:/devkitPro/libogc/lib/wii\libogc.a(ios.o)
 .bss           0x00000000        0x0 c:/devkitPro/libogc/lib/wii\libogc.a(ios.o)
 .text.IOS_GetRevision
                0x00000000        0x0 c:/devkitPro/libogc/lib/wii\libogc.a(ios.o)
 .text.IOS_GetRevisionMinor
                0x00000000        0x0 c:/devkitPro/libogc/lib/wii\libogc.a(ios.o)
 .text.IOS_GetRevisionMajor
                0x00000000        0x0 c:/devkitPro/libogc/lib/wii\libogc.a(ios.o)
 .text.IOS_ReloadIOS
                0x00000000        0x0 c:/devkitPro/libogc/lib/wii\libogc.a(ios.o)
 .text          0x00000000        0x0 c:/devkitPro/libogc/lib/wii\libogc.a(es.o)
 .data          0x00000000        0x0 c:/devkitPro/libogc/lib/wii\libogc.a(es.o)
 .bss           0x00000000        0x0 c:/devkitPro/libogc/lib/wii\libogc.a(es.o)
 .text.ES_NextCert
                0x00000000        0x0 c:/devkitPro/libogc/lib/wii\libogc.a(es.o)
 .text.__ES_sanity_check_certlist
                0x00000000        0x0 c:/devkitPro/libogc/lib/wii\libogc.a(es.o)
 .text.ES_GetBoot2Version
                0x00000000        0x0 c:/devkitPro/libogc/lib/wii\libogc.a(es.o)
 .text.ES_GetDeviceID
                0x00000000        0x0 c:/devkitPro/libogc/lib/wii\libogc.a(es.o)
 .text.ES_GetDeviceCert
                0x00000000        0x0 c:/devkitPro/libogc/lib/wii\libogc.a(es.o)
 .text.ES_Sign  0x00000000        0x0 c:/devkitPro/libogc/lib/wii\libogc.a(es.o)
 .text.ES_Decrypt
                0x00000000        0x0 c:/devkitPro/libogc/lib/wii\libogc.a(es.o)
 .text.ES_Encrypt
                0x00000000        0x0 c:/devkitPro/libogc/lib/wii\libogc.a(es.o)
 .text.ES_DeleteTitleContent
                0x00000000        0x0 c:/devkitPro/libogc/lib/wii\libogc.a(es.o)
 .text.ES_DeleteTitle
                0x00000000        0x0 c:/devkitPro/libogc/lib/wii\libogc.a(es.o)
 .text.ES_ImportBoot
                0x00000000        0x0 c:/devkitPro/libogc/lib/wii\libogc.a(es.o)
 .text.ES_AddTitleCancel
                0x00000000        0x0 c:/devkitPro/libogc/lib/wii\libogc.a(es.o)
 .text.ES_AddTitleFinish
                0x00000000        0x0 c:/devkitPro/libogc/lib/wii\libogc.a(es.o)
 .text.ES_AddContentFinish
                0x00000000        0x0 c:/devkitPro/libogc/lib/wii\libogc.a(es.o)
 .text.ES_AddContentData
                0x00000000        0x0 c:/devkitPro/libogc/lib/wii\libogc.a(es.o)
 .text.ES_AddContentStart
                0x00000000        0x0 c:/devkitPro/libogc/lib/wii\libogc.a(es.o)
 .text.ES_AddTitleStart
                0x00000000        0x0 c:/devkitPro/libogc/lib/wii\libogc.a(es.o)
 .text.ES_AddTitleTMD
                0x00000000        0x0 c:/devkitPro/libogc/lib/wii\libogc.a(es.o)
 .text.ES_DeleteTicket
                0x00000000        0x0 c:/devkitPro/libogc/lib/wii\libogc.a(es.o)
 .text.ES_AddTicket
                0x00000000        0x0 c:/devkitPro/libogc/lib/wii\libogc.a(es.o)
 .text.ES_GetSharedContents
                0x00000000        0x0 c:/devkitPro/libogc/lib/wii\libogc.a(es.o)
 .text.ES_GetNumSharedContents
                0x00000000        0x0 c:/devkitPro/libogc/lib/wii\libogc.a(es.o)
 .text.ES_GetTMDView
                0x00000000        0x0 c:/devkitPro/libogc/lib/wii\libogc.a(es.o)
 .text.ES_GetTMDViewSize
                0x00000000        0x0 c:/devkitPro/libogc/lib/wii\libogc.a(es.o)
 .text.ES_GetTitleContents
                0x00000000        0x0 c:/devkitPro/libogc/lib/wii\libogc.a(es.o)
 .text.ES_GetTitleContentsCount
                0x00000000        0x0 c:/devkitPro/libogc/lib/wii\libogc.a(es.o)
 .text.ES_GetStoredTMDContents
                0x00000000        0x0 c:/devkitPro/libogc/lib/wii\libogc.a(es.o)
 .text.ES_GetNumStoredTMDContents
                0x00000000        0x0 c:/devkitPro/libogc/lib/wii\libogc.a(es.o)
 .text.ES_GetOwnedTitles
                0x00000000        0x0 c:/devkitPro/libogc/lib/wii\libogc.a(es.o)
 .text.ES_GetNumOwnedTitles
                0x00000000        0x0 c:/devkitPro/libogc/lib/wii\libogc.a(es.o)
 .text.ES_GetDataDir
                0x00000000        0x0 c:/devkitPro/libogc/lib/wii\libogc.a(es.o)
 .text.ES_SetUID
                0x00000000        0x0 c:/devkitPro/libogc/lib/wii\libogc.a(es.o)
 .text.ES_LaunchTitleBackground
                0x00000000        0x0 c:/devkitPro/libogc/lib/wii\libogc.a(es.o)
 .text.ES_Identify
                0x00000000        0x0 c:/devkitPro/libogc/lib/wii\libogc.a(es.o)
 .text          0x00000000        0x0 c:/devkitPro/libogc/lib/wii\libogc.a(usb.o)
 .data          0x00000000        0x0 c:/devkitPro/libogc/lib/wii\libogc.a(usb.o)
 .bss           0x00000000        0x0 c:/devkitPro/libogc/lib/wii\libogc.a(usb.o)
 .text.USB_ReadIntrMsg
                0x00000000        0x0 c:/devkitPro/libogc/lib/wii\libogc.a(usb.o)
 .text.USB_GetDeviceList
                0x00000000        0x0 c:/devkitPro/libogc/lib/wii\libogc.a(usb.o)
 .text.USB_DeviceInsertNotifyAsync
                0x00000000        0x0 c:/devkitPro/libogc/lib/wii\libogc.a(usb.o)
 .text.USB_CloseDevice
                0x00000000        0x0 c:/devkitPro/libogc/lib/wii\libogc.a(usb.o)
 .text.__usb_device_notificationCB
                0x00000000        0x0 c:/devkitPro/libogc/lib/wii\libogc.a(usb.o)
 .text.USB_ResumeDevice
                0x00000000        0x0 c:/devkitPro/libogc/lib/wii\libogc.a(usb.o)
 .text.USB_SuspendDevice
                0x00000000        0x0 c:/devkitPro/libogc/lib/wii\libogc.a(usb.o)
 .text.USB_DeviceRemovalNotifyAsync
                0x00000000        0x0 c:/devkitPro/libogc/lib/wii\libogc.a(usb.o)
 .text.USB_FreeDescriptors
                0x00000000        0x0 c:/devkitPro/libogc/lib/wii\libogc.a(usb.o)
 .text.USB_Deinitialize
                0x00000000        0x0 c:/devkitPro/libogc/lib/wii\libogc.a(usb.o)
 .text.USB_WriteBlkMsg
                0x00000000        0x0 c:/devkitPro/libogc/lib/wii\libogc.a(usb.o)
 .text.USB_ReadBlkMsg
                0x00000000        0x0 c:/devkitPro/libogc/lib/wii\libogc.a(usb.o)
 .text.USB_WriteIntrMsgAsync
                0x00000000        0x0 c:/devkitPro/libogc/lib/wii\libogc.a(usb.o)
 .text.USB_WriteIntrMsg
                0x00000000        0x0 c:/devkitPro/libogc/lib/wii\libogc.a(usb.o)
 .text.USB_ClearHalt
                0x00000000        0x0 c:/devkitPro/libogc/lib/wii\libogc.a(usb.o)
 .text.USB_SetAlternativeInterface
                0x00000000        0x0 c:/devkitPro/libogc/lib/wii\libogc.a(usb.o)
 .text.USB_GetConfiguration
                0x00000000        0x0 c:/devkitPro/libogc/lib/wii\libogc.a(usb.o)
 .text.USB_SetConfiguration
                0x00000000        0x0 c:/devkitPro/libogc/lib/wii\libogc.a(usb.o)
 .text.USB_WriteCtrlMsg
                0x00000000        0x0 c:/devkitPro/libogc/lib/wii\libogc.a(usb.o)
 .text.USB_ReadCtrlMsgAsync
                0x00000000        0x0 c:/devkitPro/libogc/lib/wii\libogc.a(usb.o)
 .text.USB_ReadCtrlMsg
                0x00000000        0x0 c:/devkitPro/libogc/lib/wii\libogc.a(usb.o)
 .text.USB_GetAsciiString
                0x00000000        0x0 c:/devkitPro/libogc/lib/wii\libogc.a(usb.o)
 .text.USB_GetDeviceDescription
                0x00000000        0x0 c:/devkitPro/libogc/lib/wii\libogc.a(usb.o)
 .text.USB_GetDescriptors
                0x00000000        0x0 c:/devkitPro/libogc/lib/wii\libogc.a(usb.o)
 .text          0x00000000        0x0 c:/devkitPro/libogc/lib/wii\libogc.a(network_common.o)
 .data          0x00000000        0x0 c:/devkitPro/libogc/lib/wii\libogc.a(network_common.o)
 .bss           0x00000000        0x0 c:/devkitPro/libogc/lib/wii\libogc.a(network_common.o)
 .text          0x00000000        0x0 c:/devkitPro/libogc/lib/wii\libogc.a(argv.o)
 .data          0x00000000        0x0 c:/devkitPro/libogc/lib/wii\libogc.a(argv.o)
 .bss           0x00000000        0x0 c:/devkitPro/libogc/lib/wii\libogc.a(argv.o)
 .text          0x00000000        0x0 c:/devkitPro/libogc/lib/wii\libogc.a(network_wii.o)
 .data          0x00000000        0x0 c:/devkitPro/libogc/lib/wii\libogc.a(network_wii.o)
 .bss           0x00000000        0x0 c:/devkitPro/libogc/lib/wii\libogc.a(network_wii.o)
 .text.net_select
                0x00000000        0x0 c:/devkitPro/libogc/lib/wii\libogc.a(network_wii.o)
 .text.net_fcntl
                0x00000000        0x0 c:/devkitPro/libogc/lib/wii\libogc.a(network_wii.o)
 .text.net_ioctl
                0x00000000        0x0 c:/devkitPro/libogc/lib/wii\libogc.a(network_wii.o)
 .text.net_accept
                0x00000000        0x0 c:/devkitPro/libogc/lib/wii\libogc.a(network_wii.o)
 .text.net_listen
                0x00000000        0x0 c:/devkitPro/libogc/lib/wii\libogc.a(network_wii.o)
 .text.net_shutdown
                0x00000000        0x0 c:/devkitPro/libogc/lib/wii\libogc.a(network_wii.o)
 .text.net_poll
                0x00000000        0x0 c:/devkitPro/libogc/lib/wii\libogc.a(network_wii.o)
 .text.net_setsockopt
                0x00000000        0x0 c:/devkitPro/libogc/lib/wii\libogc.a(network_wii.o)
 .text.net_bind
                0x00000000        0x0 c:/devkitPro/libogc/lib/wii\libogc.a(network_wii.o)
 .text.net_recv
                0x00000000        0x0 c:/devkitPro/libogc/lib/wii\libogc.a(network_wii.o)
 .text.net_gethostbyname
                0x00000000        0x0 c:/devkitPro/libogc/lib/wii\libogc.a(network_wii.o)
 .text.if_configex
                0x00000000        0x0 c:/devkitPro/libogc/lib/wii\libogc.a(network_wii.o)
 .text.if_config
                0x00000000        0x0 c:/devkitPro/libogc/lib/wii\libogc.a(network_wii.o)
 .bss.ipBuffer.6861
                0x00000000        0x0 c:/devkitPro/libogc/lib/wii\libogc.a(network_wii.o)
 .text          0x00000000        0x0 c:/devkitPro/libogc/lib/wii\libogc.a(conf.o)
 .data          0x00000000        0x0 c:/devkitPro/libogc/lib/wii\libogc.a(conf.o)
 .bss           0x00000000        0x0 c:/devkitPro/libogc/lib/wii\libogc.a(conf.o)
 .text.CONF_GetType
                0x00000000        0x0 c:/devkitPro/libogc/lib/wii\libogc.a(conf.o)
 .text.CONF_GetWiiConnect24
                0x00000000        0x0 c:/devkitPro/libogc/lib/wii\libogc.a(conf.o)
 .text.CONF_GetParentalAnswer
                0x00000000        0x0 c:/devkitPro/libogc/lib/wii\libogc.a(conf.o)
 .text.CONF_GetParentalPassword
                0x00000000        0x0 c:/devkitPro/libogc/lib/wii\libogc.a(conf.o)
 .text.CONF_GetEULA
                0x00000000        0x0 c:/devkitPro/libogc/lib/wii\libogc.a(conf.o)
 .text.CONF_GetAspectRatio
                0x00000000        0x0 c:/devkitPro/libogc/lib/wii\libogc.a(conf.o)
 .text.CONF_GetNickName
                0x00000000        0x0 c:/devkitPro/libogc/lib/wii\libogc.a(conf.o)
 .text.CONF_GetScreenSaverMode
                0x00000000        0x0 c:/devkitPro/libogc/lib/wii\libogc.a(conf.o)
 .text.CONF_GetCounterBias
                0x00000000        0x0 c:/devkitPro/libogc/lib/wii\libogc.a(conf.o)
 .text.CONF_GetLanguage
                0x00000000        0x0 c:/devkitPro/libogc/lib/wii\libogc.a(conf.o)
 .text.CONF_GetSoundMode
                0x00000000        0x0 c:/devkitPro/libogc/lib/wii\libogc.a(conf.o)
 .text.CONF_GetPadMotorMode
                0x00000000        0x0 c:/devkitPro/libogc/lib/wii\libogc.a(conf.o)
 .text.CONF_GetPadSpeakerVolume
                0x00000000        0x0 c:/devkitPro/libogc/lib/wii\libogc.a(conf.o)
 .text.CONF_GetArea
                0x00000000        0x0 c:/devkitPro/libogc/lib/wii\libogc.a(conf.o)
 .text.CONF_GetRegion
                0x00000000        0x0 c:/devkitPro/libogc/lib/wii\libogc.a(conf.o)
 .text          0x00000000        0x0 c:/devkitPro/libogc/lib/wii\libogc.a(wiilaunch.o)
 .data          0x00000000        0x0 c:/devkitPro/libogc/lib/wii\libogc.a(wiilaunch.o)
 .bss           0x00000000        0x0 c:/devkitPro/libogc/lib/wii\libogc.a(wiilaunch.o)
 .text.WII_ReturnToSettings
                0x00000000        0x0 c:/devkitPro/libogc/lib/wii\libogc.a(wiilaunch.o)
 .text.__WII_SetArgs
                0x00000000        0x0 c:/devkitPro/libogc/lib/wii\libogc.a(wiilaunch.o)
 .text.WII_LaunchTitleWithArgs
                0x00000000        0x0 c:/devkitPro/libogc/lib/wii\libogc.a(wiilaunch.o)
 .text.WII_OpenURL
                0x00000000        0x0 c:/devkitPro/libogc/lib/wii\libogc.a(wiilaunch.o)
 .text.WII_ReturnToSettingsPage
                0x00000000        0x0 c:/devkitPro/libogc/lib/wii\libogc.a(wiilaunch.o)
 .rodata.str1.4
                0x00000000        0x0 c:/devkitPro/libogc/lib/wii\libogc.a(wiilaunch.o)
 .text          0x00000000        0x0 c:/devkitPro/libogc/lib/wii\libogc.a(lwp_priority.o)
 .data          0x00000000        0x0 c:/devkitPro/libogc/lib/wii\libogc.a(lwp_priority.o)
 .bss           0x00000000        0x0 c:/devkitPro/libogc/lib/wii\libogc.a(lwp_priority.o)
 .text          0x00000000        0x0 c:/devkitPro/libogc/lib/wii\libogc.a(lwp_threadq.o)
 .data          0x00000000        0x0 c:/devkitPro/libogc/lib/wii\libogc.a(lwp_threadq.o)
 .bss           0x00000000        0x0 c:/devkitPro/libogc/lib/wii\libogc.a(lwp_threadq.o)
 .text.__lwp_threadqueue_firstfifo
                0x00000000        0x0 c:/devkitPro/libogc/lib/wii\libogc.a(lwp_threadq.o)
 .text.__lwp_threadqueue_firstpriority
                0x00000000        0x0 c:/devkitPro/libogc/lib/wii\libogc.a(lwp_threadq.o)
 .text.__lwp_threadqueue_first
                0x00000000        0x0 c:/devkitPro/libogc/lib/wii\libogc.a(lwp_threadq.o)
 .text          0x00000000        0x0 c:/devkitPro/libogc/lib/wii\libogc.a(lwp_messages.o)
 .data          0x00000000        0x0 c:/devkitPro/libogc/lib/wii\libogc.a(lwp_messages.o)
 .bss           0x00000000        0x0 c:/devkitPro/libogc/lib/wii\libogc.a(lwp_messages.o)
 .text.__lwpmq_flush_support
                0x00000000        0x0 c:/devkitPro/libogc/lib/wii\libogc.a(lwp_messages.o)
 .text.__lwpmq_flush
                0x00000000        0x0 c:/devkitPro/libogc/lib/wii\libogc.a(lwp_messages.o)
 .text.__lwpmq_flush_waitthreads
                0x00000000        0x0 c:/devkitPro/libogc/lib/wii\libogc.a(lwp_messages.o)
 .text.__lwpmq_close
                0x00000000        0x0 c:/devkitPro/libogc/lib/wii\libogc.a(lwp_messages.o)
 .text.__lwpmq_initialize
                0x00000000        0x0 c:/devkitPro/libogc/lib/wii\libogc.a(lwp_messages.o)
 .text.__lwpmq_msg_insert
                0x00000000        0x0 c:/devkitPro/libogc/lib/wii\libogc.a(lwp_messages.o)
 .text.__lwpmq_broadcast
                0x00000000        0x0 c:/devkitPro/libogc/lib/wii\libogc.a(lwp_messages.o)
 .text.__lwpmq_submit
                0x00000000        0x0 c:/devkitPro/libogc/lib/wii\libogc.a(lwp_messages.o)
 .text.__lwpmq_seize
                0x00000000        0x0 c:/devkitPro/libogc/lib/wii\libogc.a(lwp_messages.o)
 .text          0x00000000        0x0 c:/devkitPro/libogc/lib/wii\libogc.a(lwp_mutex.o)
 .data          0x00000000        0x0 c:/devkitPro/libogc/lib/wii\libogc.a(lwp_mutex.o)
 .bss           0x00000000        0x0 c:/devkitPro/libogc/lib/wii\libogc.a(lwp_mutex.o)
 .text          0x00000000        0x0 c:/devkitPro/libogc/lib/wii\libogc.a(exception.o)
 .data          0x00000000        0x0 c:/devkitPro/libogc/lib/wii\libogc.a(exception.o)
 .bss           0x00000000        0x0 c:/devkitPro/libogc/lib/wii\libogc.a(exception.o)
 .text.__exception_close
                0x00000000        0x0 c:/devkitPro/libogc/lib/wii\libogc.a(exception.o)
 .text.__exception_closeall
                0x00000000        0x0 c:/devkitPro/libogc/lib/wii\libogc.a(exception.o)
 .data          0x00000000        0x0 c:/devkitPro/libogc/lib/wii\libogc.a(irq_handler.o)
 .bss           0x00000000        0x0 c:/devkitPro/libogc/lib/wii\libogc.a(irq_handler.o)
 .text          0x00000000        0x0 c:/devkitPro/libogc/lib/wii\libogc.a(semaphore.o)
 .data          0x00000000        0x0 c:/devkitPro/libogc/lib/wii\libogc.a(semaphore.o)
 .bss           0x00000000        0x0 c:/devkitPro/libogc/lib/wii\libogc.a(semaphore.o)
 .text.LWP_SemInit
                0x00000000        0x0 c:/devkitPro/libogc/lib/wii\libogc.a(semaphore.o)
 .text.LWP_SemDestroy
                0x00000000        0x0 c:/devkitPro/libogc/lib/wii\libogc.a(semaphore.o)
 .text.LWP_SemPost
                0x00000000        0x0 c:/devkitPro/libogc/lib/wii\libogc.a(semaphore.o)
 .text.LWP_SemWait
                0x00000000        0x0 c:/devkitPro/libogc/lib/wii\libogc.a(semaphore.o)
 .text          0x00000000        0x0 c:/devkitPro/libogc/lib/wii\libogc.a(video_asm.o)
 .data          0x00000000        0x0 c:/devkitPro/libogc/lib/wii\libogc.a(video_asm.o)
 .bss           0x00000000        0x0 c:/devkitPro/libogc/lib/wii\libogc.a(video_asm.o)
 .text          0x00000000        0x0 c:/devkitPro/libogc/lib/wii\libogc.a(exi.o)
 .data          0x00000000        0x0 c:/devkitPro/libogc/lib/wii\libogc.a(exi.o)
 .bss           0x00000000        0x0 c:/devkitPro/libogc/lib/wii\libogc.a(exi.o)
 .text.EXI_GetState
                0x00000000        0x0 c:/devkitPro/libogc/lib/wii\libogc.a(exi.o)
 .text.InitializeUART
                0x00000000        0x0 c:/devkitPro/libogc/lib/wii\libogc.a(exi.o)
 .text.WriteUARTN
                0x00000000        0x0 c:/devkitPro/libogc/lib/wii\libogc.a(exi.o)
 .text.EXI_Probe
                0x00000000        0x0 c:/devkitPro/libogc/lib/wii\libogc.a(exi.o)
 .text.EXI_ProbeEx
                0x00000000        0x0 c:/devkitPro/libogc/lib/wii\libogc.a(exi.o)
 .text.EXI_Attach
                0x00000000        0x0 c:/devkitPro/libogc/lib/wii\libogc.a(exi.o)
 .text.__SYS_EnableBarnacle
                0x00000000        0x0 c:/devkitPro/libogc/lib/wii\libogc.a(exi.o)
 .text.EXI_SelectSD
                0x00000000        0x0 c:/devkitPro/libogc/lib/wii\libogc.a(exi.o)
 .text.EXI_RegisterEXICallback
                0x00000000        0x0 c:/devkitPro/libogc/lib/wii\libogc.a(exi.o)
 .sbss.exi_uart_dev
                0x00000000        0x0 c:/devkitPro/libogc/lib/wii\libogc.a(exi.o)
 .sbss.exi_uart_barnacle_enabled
                0x00000000        0x0 c:/devkitPro/libogc/lib/wii\libogc.a(exi.o)
 .sbss.exi_uart_chan
                0x00000000        0x0 c:/devkitPro/libogc/lib/wii\libogc.a(exi.o)
 .sbss.exi_uart_enabled
                0x00000000        0x0 c:/devkitPro/libogc/lib/wii\libogc.a(exi.o)
 .text          0x00000000        0x0 c:/devkitPro/libogc/lib/wii\libogc.a(mutex.o)
 .data          0x00000000        0x0 c:/devkitPro/libogc/lib/wii\libogc.a(mutex.o)
 .bss           0x00000000        0x0 c:/devkitPro/libogc/lib/wii\libogc.a(mutex.o)
 .text.LWP_MutexTryLock
                0x00000000        0x0 c:/devkitPro/libogc/lib/wii\libogc.a(mutex.o)
 .data          0x00000000        0x0 c:/devkitPro/libogc/lib/wii\libogc.a(cache_asm.o)
 .bss           0x00000000        0x0 c:/devkitPro/libogc/lib/wii\libogc.a(cache_asm.o)
 .data          0x00000000        0x0 c:/devkitPro/libogc/lib/wii\libogc.a(decrementer_handler.o)
 .bss           0x00000000        0x0 c:/devkitPro/libogc/lib/wii\libogc.a(decrementer_handler.o)
 .text          0x00000000        0x0 c:/devkitPro/libogc/lib/wii\libogc.a(kprintf.o)
 .data          0x00000000        0x0 c:/devkitPro/libogc/lib/wii\libogc.a(kprintf.o)
 .bss           0x00000000        0x0 c:/devkitPro/libogc/lib/wii\libogc.a(kprintf.o)
 .text          0x00000000        0x0 c:/devkitPro/libogc/lib/wii\libogc.a(lwp_sema.o)
 .data          0x00000000        0x0 c:/devkitPro/libogc/lib/wii\libogc.a(lwp_sema.o)
 .bss           0x00000000        0x0 c:/devkitPro/libogc/lib/wii\libogc.a(lwp_sema.o)
 .text.__lwp_sema_flush
                0x00000000        0x0 c:/devkitPro/libogc/lib/wii\libogc.a(lwp_sema.o)
 .text.__lwp_sema_seize
                0x00000000        0x0 c:/devkitPro/libogc/lib/wii\libogc.a(lwp_sema.o)
 .text.__lwp_sema_surrender
                0x00000000        0x0 c:/devkitPro/libogc/lib/wii\libogc.a(lwp_sema.o)
 .text.__lwp_sema_initialize
                0x00000000        0x0 c:/devkitPro/libogc/lib/wii\libogc.a(lwp_sema.o)
 .data          0x00000000        0x0 c:/devkitPro/libogc/lib/wii\libogc.a(exception_handler.o)
 .bss           0x00000000        0x0 c:/devkitPro/libogc/lib/wii\libogc.a(exception_handler.o)
 .data          0x00000000        0x0 c:/devkitpro/devkitppc/bin/../lib/gcc/powerpc-gekko/4.2.4/../../../../powerpc-gekko/lib\libm.a(lib_a-s_atan2.o)
 .bss           0x00000000        0x0 c:/devkitpro/devkitppc/bin/../lib/gcc/powerpc-gekko/4.2.4/../../../../powerpc-gekko/lib\libm.a(lib_a-s_atan2.o)
 .data          0x00000000        0x0 c:/devkitpro/devkitppc/bin/../lib/gcc/powerpc-gekko/4.2.4/../../../../powerpc-gekko/lib\libm.a(lib_a-s_atangent.o)
 .bss           0x00000000        0x0 c:/devkitpro/devkitppc/bin/../lib/gcc/powerpc-gekko/4.2.4/../../../../powerpc-gekko/lib\libm.a(lib_a-s_atangent.o)
 .data          0x00000000        0x0 c:/devkitpro/devkitppc/bin/../lib/gcc/powerpc-gekko/4.2.4/../../../../powerpc-gekko/lib\libm.a(lib_a-s_cos.o)
 .bss           0x00000000        0x0 c:/devkitpro/devkitppc/bin/../lib/gcc/powerpc-gekko/4.2.4/../../../../powerpc-gekko/lib\libm.a(lib_a-s_cos.o)
 .data          0x00000000        0x0 c:/devkitpro/devkitppc/bin/../lib/gcc/powerpc-gekko/4.2.4/../../../../powerpc-gekko/lib\libm.a(lib_a-s_fabs.o)
 .bss           0x00000000        0x0 c:/devkitpro/devkitppc/bin/../lib/gcc/powerpc-gekko/4.2.4/../../../../powerpc-gekko/lib\libm.a(lib_a-s_fabs.o)
 .data          0x00000000        0x0 c:/devkitpro/devkitppc/bin/../lib/gcc/powerpc-gekko/4.2.4/../../../../powerpc-gekko/lib\libm.a(lib_a-s_frexp.o)
 .bss           0x00000000        0x0 c:/devkitpro/devkitppc/bin/../lib/gcc/powerpc-gekko/4.2.4/../../../../powerpc-gekko/lib\libm.a(lib_a-s_frexp.o)
 .text          0x00000000        0x0 c:/devkitpro/devkitppc/bin/../lib/gcc/powerpc-gekko/4.2.4/../../../../powerpc-gekko/lib\libm.a(lib_a-s_mathcnst.o)
 .data          0x00000000        0x0 c:/devkitpro/devkitppc/bin/../lib/gcc/powerpc-gekko/4.2.4/../../../../powerpc-gekko/lib\libm.a(lib_a-s_mathcnst.o)
 .bss           0x00000000        0x0 c:/devkitpro/devkitppc/bin/../lib/gcc/powerpc-gekko/4.2.4/../../../../powerpc-gekko/lib\libm.a(lib_a-s_mathcnst.o)
 .data          0x00000000        0x0 c:/devkitpro/devkitppc/bin/../lib/gcc/powerpc-gekko/4.2.4/../../../../powerpc-gekko/lib\libm.a(lib_a-s_numtest.o)
 .bss           0x00000000        0x0 c:/devkitpro/devkitppc/bin/../lib/gcc/powerpc-gekko/4.2.4/../../../../powerpc-gekko/lib\libm.a(lib_a-s_numtest.o)
 .data          0x00000000        0x0 c:/devkitpro/devkitppc/bin/../lib/gcc/powerpc-gekko/4.2.4/../../../../powerpc-gekko/lib\libm.a(lib_a-s_sin.o)
 .bss           0x00000000        0x0 c:/devkitpro/devkitppc/bin/../lib/gcc/powerpc-gekko/4.2.4/../../../../powerpc-gekko/lib\libm.a(lib_a-s_sin.o)
 .data          0x00000000        0x0 c:/devkitpro/devkitppc/bin/../lib/gcc/powerpc-gekko/4.2.4/../../../../powerpc-gekko/lib\libm.a(lib_a-s_sine.o)
 .bss           0x00000000        0x0 c:/devkitpro/devkitppc/bin/../lib/gcc/powerpc-gekko/4.2.4/../../../../powerpc-gekko/lib\libm.a(lib_a-s_sine.o)
 .data          0x00000000        0x0 c:/devkitpro/devkitppc/bin/../lib/gcc/powerpc-gekko/4.2.4/../../../../powerpc-gekko/lib\libm.a(lib_a-s_sqrt.o)
 .bss           0x00000000        0x0 c:/devkitpro/devkitppc/bin/../lib/gcc/powerpc-gekko/4.2.4/../../../../powerpc-gekko/lib\libm.a(lib_a-s_sqrt.o)
 .data          0x00000000        0x0 c:/devkitpro/devkitppc/bin/../lib/gcc/powerpc-gekko/4.2.4/../../../../powerpc-gekko/lib\libm.a(lib_a-sf_atan.o)
 .bss           0x00000000        0x0 c:/devkitpro/devkitppc/bin/../lib/gcc/powerpc-gekko/4.2.4/../../../../powerpc-gekko/lib\libm.a(lib_a-sf_atan.o)
 .data          0x00000000        0x0 c:/devkitpro/devkitppc/bin/../lib/gcc/powerpc-gekko/4.2.4/../../../../powerpc-gekko/lib\libm.a(lib_a-sf_atan2.o)
 .bss           0x00000000        0x0 c:/devkitpro/devkitppc/bin/../lib/gcc/powerpc-gekko/4.2.4/../../../../powerpc-gekko/lib\libm.a(lib_a-sf_atan2.o)
 .data          0x00000000        0x0 c:/devkitpro/devkitppc/bin/../lib/gcc/powerpc-gekko/4.2.4/../../../../powerpc-gekko/lib\libm.a(lib_a-sf_atangent.o)
 .bss           0x00000000        0x0 c:/devkitpro/devkitppc/bin/../lib/gcc/powerpc-gekko/4.2.4/../../../../powerpc-gekko/lib\libm.a(lib_a-sf_atangent.o)
 .data          0x00000000        0x0 c:/devkitpro/devkitppc/bin/../lib/gcc/powerpc-gekko/4.2.4/../../../../powerpc-gekko/lib\libm.a(lib_a-sf_cos.o)
 .bss           0x00000000        0x0 c:/devkitpro/devkitppc/bin/../lib/gcc/powerpc-gekko/4.2.4/../../../../powerpc-gekko/lib\libm.a(lib_a-sf_cos.o)
 .data          0x00000000        0x0 c:/devkitpro/devkitppc/bin/../lib/gcc/powerpc-gekko/4.2.4/../../../../powerpc-gekko/lib\libm.a(lib_a-sf_fabs.o)
 .bss           0x00000000        0x0 c:/devkitpro/devkitppc/bin/../lib/gcc/powerpc-gekko/4.2.4/../../../../powerpc-gekko/lib\libm.a(lib_a-sf_fabs.o)
 .data          0x00000000        0x0 c:/devkitpro/devkitppc/bin/../lib/gcc/powerpc-gekko/4.2.4/../../../../powerpc-gekko/lib\libm.a(lib_a-sf_fpclassify.o)
 .bss           0x00000000        0x0 c:/devkitpro/devkitppc/bin/../lib/gcc/powerpc-gekko/4.2.4/../../../../powerpc-gekko/lib\libm.a(lib_a-sf_fpclassify.o)
 .data          0x00000000        0x0 c:/devkitpro/devkitppc/bin/../lib/gcc/powerpc-gekko/4.2.4/../../../../powerpc-gekko/lib\libm.a(lib_a-sf_frexp.o)
 .bss           0x00000000        0x0 c:/devkitpro/devkitppc/bin/../lib/gcc/powerpc-gekko/4.2.4/../../../../powerpc-gekko/lib\libm.a(lib_a-sf_frexp.o)
 .data          0x00000000        0x0 c:/devkitpro/devkitppc/bin/../lib/gcc/powerpc-gekko/4.2.4/../../../../powerpc-gekko/lib\libm.a(lib_a-sf_isinff.o)
 .bss           0x00000000        0x0 c:/devkitpro/devkitppc/bin/../lib/gcc/powerpc-gekko/4.2.4/../../../../powerpc-gekko/lib\libm.a(lib_a-sf_isinff.o)
 .data          0x00000000        0x0 c:/devkitpro/devkitppc/bin/../lib/gcc/powerpc-gekko/4.2.4/../../../../powerpc-gekko/lib\libm.a(lib_a-sf_isnanf.o)
 .bss           0x00000000        0x0 c:/devkitpro/devkitppc/bin/../lib/gcc/powerpc-gekko/4.2.4/../../../../powerpc-gekko/lib\libm.a(lib_a-sf_isnanf.o)
 .data          0x00000000        0x0 c:/devkitpro/devkitppc/bin/../lib/gcc/powerpc-gekko/4.2.4/../../../../powerpc-gekko/lib\libm.a(lib_a-sf_numtest.o)
 .bss           0x00000000        0x0 c:/devkitpro/devkitppc/bin/../lib/gcc/powerpc-gekko/4.2.4/../../../../powerpc-gekko/lib\libm.a(lib_a-sf_numtest.o)
 .data          0x00000000        0x0 c:/devkitpro/devkitppc/bin/../lib/gcc/powerpc-gekko/4.2.4/../../../../powerpc-gekko/lib\libm.a(lib_a-sf_sin.o)
 .bss           0x00000000        0x0 c:/devkitpro/devkitppc/bin/../lib/gcc/powerpc-gekko/4.2.4/../../../../powerpc-gekko/lib\libm.a(lib_a-sf_sin.o)
 .data          0x00000000        0x0 c:/devkitpro/devkitppc/bin/../lib/gcc/powerpc-gekko/4.2.4/../../../../powerpc-gekko/lib\libm.a(lib_a-sf_sine.o)
 .bss           0x00000000        0x0 c:/devkitpro/devkitppc/bin/../lib/gcc/powerpc-gekko/4.2.4/../../../../powerpc-gekko/lib\libm.a(lib_a-sf_sine.o)
 .data          0x00000000        0x0 c:/devkitpro/devkitppc/bin/../lib/gcc/powerpc-gekko/4.2.4/../../../../powerpc-gekko/lib\libm.a(lib_a-sf_sqrt.o)
 .bss           0x00000000        0x0 c:/devkitpro/devkitppc/bin/../lib/gcc/powerpc-gekko/4.2.4/../../../../powerpc-gekko/lib\libm.a(lib_a-sf_sqrt.o)
 .data          0x00000000        0x0 c:/devkitpro/devkitppc/bin/../lib/gcc/powerpc-gekko/4.2.4/../../../../powerpc-gekko/lib\libm.a(lib_a-s_ispos.o)
 .bss           0x00000000        0x0 c:/devkitpro/devkitppc/bin/../lib/gcc/powerpc-gekko/4.2.4/../../../../powerpc-gekko/lib\libm.a(lib_a-s_ispos.o)
 .data          0x00000000        0x0 c:/devkitpro/devkitppc/bin/../lib/gcc/powerpc-gekko/4.2.4/../../../../powerpc-gekko/lib\libm.a(lib_a-s_ldexp.o)
 .bss           0x00000000        0x0 c:/devkitpro/devkitppc/bin/../lib/gcc/powerpc-gekko/4.2.4/../../../../powerpc-gekko/lib\libm.a(lib_a-s_ldexp.o)
 .data          0x00000000        0x0 c:/devkitpro/devkitppc/bin/../lib/gcc/powerpc-gekko/4.2.4/../../../../powerpc-gekko/lib\libm.a(lib_a-sf_ispos.o)
 .bss           0x00000000        0x0 c:/devkitpro/devkitppc/bin/../lib/gcc/powerpc-gekko/4.2.4/../../../../powerpc-gekko/lib\libm.a(lib_a-sf_ispos.o)
 .data          0x00000000        0x0 c:/devkitpro/devkitppc/bin/../lib/gcc/powerpc-gekko/4.2.4/../../../../powerpc-gekko/lib\libm.a(lib_a-sf_ldexp.o)
 .bss           0x00000000        0x0 c:/devkitpro/devkitppc/bin/../lib/gcc/powerpc-gekko/4.2.4/../../../../powerpc-gekko/lib\libm.a(lib_a-sf_ldexp.o)
 .data          0x00000000        0x0 c:/devkitpro/devkitppc/bin/../lib/gcc/powerpc-gekko/4.2.4\libgcc.a(_udivdi3.o)
 .bss           0x00000000        0x0 c:/devkitpro/devkitppc/bin/../lib/gcc/powerpc-gekko/4.2.4\libgcc.a(_udivdi3.o)
 .data          0x00000000        0x0 c:/devkitpro/devkitppc/bin/../lib/gcc/powerpc-gekko/4.2.4/../../../../powerpc-gekko/lib\libsysbase.a(abort.o)
 .bss           0x00000000        0x0 c:/devkitpro/devkitppc/bin/../lib/gcc/powerpc-gekko/4.2.4/../../../../powerpc-gekko/lib\libsysbase.a(abort.o)
 .bss           0x00000000        0x0 c:/devkitpro/devkitppc/bin/../lib/gcc/powerpc-gekko/4.2.4/../../../../powerpc-gekko/lib\libsysbase.a(iosupport.o)
 .data          0x00000000        0x0 c:/devkitpro/devkitppc/bin/../lib/gcc/powerpc-gekko/4.2.4/../../../../powerpc-gekko/lib\libsysbase.a(_exit.o)
 .bss           0x00000000        0x0 c:/devkitpro/devkitppc/bin/../lib/gcc/powerpc-gekko/4.2.4/../../../../powerpc-gekko/lib\libsysbase.a(_exit.o)
 .data          0x00000000        0x0 c:/devkitpro/devkitppc/bin/../lib/gcc/powerpc-gekko/4.2.4/../../../../powerpc-gekko/lib\libsysbase.a(build_argv.o)
 .bss           0x00000000        0x0 c:/devkitpro/devkitppc/bin/../lib/gcc/powerpc-gekko/4.2.4/../../../../powerpc-gekko/lib\libsysbase.a(build_argv.o)
 .data          0x00000000        0x0 c:/devkitpro/devkitppc/bin/../lib/gcc/powerpc-gekko/4.2.4/../../../../powerpc-gekko/lib\libsysbase.a(syscall_support.o)
 .data          0x00000000        0x0 c:/devkitpro/devkitppc/bin/../lib/gcc/powerpc-gekko/4.2.4/../../../../powerpc-gekko/lib\libc.a(lib_a-atoi.o)
 .bss           0x00000000        0x0 c:/devkitpro/devkitppc/bin/../lib/gcc/powerpc-gekko/4.2.4/../../../../powerpc-gekko/lib\libc.a(lib_a-atoi.o)
 .data          0x00000000        0x0 c:/devkitpro/devkitppc/bin/../lib/gcc/powerpc-gekko/4.2.4/../../../../powerpc-gekko/lib\libc.a(lib_a-calloc.o)
 .bss           0x00000000        0x0 c:/devkitpro/devkitppc/bin/../lib/gcc/powerpc-gekko/4.2.4/../../../../powerpc-gekko/lib\libc.a(lib_a-calloc.o)
 .data          0x00000000        0x0 c:/devkitpro/devkitppc/bin/../lib/gcc/powerpc-gekko/4.2.4/../../../../powerpc-gekko/lib\libc.a(lib_a-callocr.o)
 .bss           0x00000000        0x0 c:/devkitpro/devkitppc/bin/../lib/gcc/powerpc-gekko/4.2.4/../../../../powerpc-gekko/lib\libc.a(lib_a-callocr.o)
 .text          0x00000000        0x0 c:/devkitpro/devkitppc/bin/../lib/gcc/powerpc-gekko/4.2.4/../../../../powerpc-gekko/lib\libc.a(lib_a-ctype_.o)
 .data          0x00000000        0x0 c:/devkitpro/devkitppc/bin/../lib/gcc/powerpc-gekko/4.2.4/../../../../powerpc-gekko/lib\libc.a(lib_a-ctype_.o)
 .bss           0x00000000        0x0 c:/devkitpro/devkitppc/bin/../lib/gcc/powerpc-gekko/4.2.4/../../../../powerpc-gekko/lib\libc.a(lib_a-ctype_.o)
 .data          0x00000000        0x0 c:/devkitpro/devkitppc/bin/../lib/gcc/powerpc-gekko/4.2.4/../../../../powerpc-gekko/lib\libc.a(lib_a-errno.o)
 .bss           0x00000000        0x0 c:/devkitpro/devkitppc/bin/../lib/gcc/powerpc-gekko/4.2.4/../../../../powerpc-gekko/lib\libc.a(lib_a-errno.o)
 .data          0x00000000        0x0 c:/devkitpro/devkitppc/bin/../lib/gcc/powerpc-gekko/4.2.4/../../../../powerpc-gekko/lib\libc.a(lib_a-exit.o)
 .bss           0x00000000        0x0 c:/devkitpro/devkitppc/bin/../lib/gcc/powerpc-gekko/4.2.4/../../../../powerpc-gekko/lib\libc.a(lib_a-exit.o)
 .data          0x00000000        0x0 c:/devkitpro/devkitppc/bin/../lib/gcc/powerpc-gekko/4.2.4/../../../../powerpc-gekko/lib\libc.a(lib_a-fflush.o)
 .bss           0x00000000        0x0 c:/devkitpro/devkitppc/bin/../lib/gcc/powerpc-gekko/4.2.4/../../../../powerpc-gekko/lib\libc.a(lib_a-fflush.o)
 .data          0x00000000        0x0 c:/devkitpro/devkitppc/bin/../lib/gcc/powerpc-gekko/4.2.4/../../../../powerpc-gekko/lib\libc.a(lib_a-findfp.o)
 .data          0x00000000        0x0 c:/devkitpro/devkitppc/bin/../lib/gcc/powerpc-gekko/4.2.4/../../../../powerpc-gekko/lib\libc.a(lib_a-fprintf.o)
 .bss           0x00000000        0x0 c:/devkitpro/devkitppc/bin/../lib/gcc/powerpc-gekko/4.2.4/../../../../powerpc-gekko/lib\libc.a(lib_a-fprintf.o)
 .data          0x00000000        0x0 c:/devkitpro/devkitppc/bin/../lib/gcc/powerpc-gekko/4.2.4/../../../../powerpc-gekko/lib\libc.a(lib_a-freer.o)
 .bss           0x00000000        0x0 c:/devkitpro/devkitppc/bin/../lib/gcc/powerpc-gekko/4.2.4/../../../../powerpc-gekko/lib\libc.a(lib_a-freer.o)
 .data          0x00000000        0x0 c:/devkitpro/devkitppc/bin/../lib/gcc/powerpc-gekko/4.2.4/../../../../powerpc-gekko/lib\libc.a(lib_a-fwalk.o)
 .bss           0x00000000        0x0 c:/devkitpro/devkitppc/bin/../lib/gcc/powerpc-gekko/4.2.4/../../../../powerpc-gekko/lib\libc.a(lib_a-fwalk.o)
 .data          0x00000000        0x0 c:/devkitpro/devkitppc/bin/../lib/gcc/powerpc-gekko/4.2.4/../../../../powerpc-gekko/lib\libc.a(lib_a-fwrite.o)
 .bss           0x00000000        0x0 c:/devkitpro/devkitppc/bin/../lib/gcc/powerpc-gekko/4.2.4/../../../../powerpc-gekko/lib\libc.a(lib_a-fwrite.o)
 .text          0x00000000        0x0 c:/devkitpro/devkitppc/bin/../lib/gcc/powerpc-gekko/4.2.4/../../../../powerpc-gekko/lib\libc.a(lib_a-impure.o)
 .bss           0x00000000        0x0 c:/devkitpro/devkitppc/bin/../lib/gcc/powerpc-gekko/4.2.4/../../../../powerpc-gekko/lib\libc.a(lib_a-impure.o)
 .data          0x00000000        0x0 c:/devkitpro/devkitppc/bin/../lib/gcc/powerpc-gekko/4.2.4/../../../../powerpc-gekko/lib\libc.a(lib_a-malign.o)
 .bss           0x00000000        0x0 c:/devkitpro/devkitppc/bin/../lib/gcc/powerpc-gekko/4.2.4/../../../../powerpc-gekko/lib\libc.a(lib_a-malign.o)
 .data          0x00000000        0x0 c:/devkitpro/devkitppc/bin/../lib/gcc/powerpc-gekko/4.2.4/../../../../powerpc-gekko/lib\libc.a(lib_a-malignr.o)
 .bss           0x00000000        0x0 c:/devkitpro/devkitppc/bin/../lib/gcc/powerpc-gekko/4.2.4/../../../../powerpc-gekko/lib\libc.a(lib_a-malignr.o)
 .data          0x00000000        0x0 c:/devkitpro/devkitppc/bin/../lib/gcc/powerpc-gekko/4.2.4/../../../../powerpc-gekko/lib\libc.a(lib_a-malloc.o)
 .bss           0x00000000        0x0 c:/devkitpro/devkitppc/bin/../lib/gcc/powerpc-gekko/4.2.4/../../../../powerpc-gekko/lib\libc.a(lib_a-malloc.o)
 .data          0x00000000        0x0 c:/devkitpro/devkitppc/bin/../lib/gcc/powerpc-gekko/4.2.4/../../../../powerpc-gekko/lib\libc.a(lib_a-memcmp.o)
 .bss           0x00000000        0x0 c:/devkitpro/devkitppc/bin/../lib/gcc/powerpc-gekko/4.2.4/../../../../powerpc-gekko/lib\libc.a(lib_a-memcmp.o)
 .data          0x00000000        0x0 c:/devkitpro/devkitppc/bin/../lib/gcc/powerpc-gekko/4.2.4/../../../../powerpc-gekko/lib\libc.a(lib_a-memcpy.o)
 .bss           0x00000000        0x0 c:/devkitpro/devkitppc/bin/../lib/gcc/powerpc-gekko/4.2.4/../../../../powerpc-gekko/lib\libc.a(lib_a-memcpy.o)
 .data          0x00000000        0x0 c:/devkitpro/devkitppc/bin/../lib/gcc/powerpc-gekko/4.2.4/../../../../powerpc-gekko/lib\libc.a(lib_a-memmove.o)
 .bss           0x00000000        0x0 c:/devkitpro/devkitppc/bin/../lib/gcc/powerpc-gekko/4.2.4/../../../../powerpc-gekko/lib\libc.a(lib_a-memmove.o)
 .data          0x00000000        0x0 c:/devkitpro/devkitppc/bin/../lib/gcc/powerpc-gekko/4.2.4/../../../../powerpc-gekko/lib\libc.a(lib_a-memset.o)
 .bss           0x00000000        0x0 c:/devkitpro/devkitppc/bin/../lib/gcc/powerpc-gekko/4.2.4/../../../../powerpc-gekko/lib\libc.a(lib_a-memset.o)
 .data          0x00000000        0x0 c:/devkitpro/devkitppc/bin/../lib/gcc/powerpc-gekko/4.2.4/../../../../powerpc-gekko/lib\libc.a(lib_a-printf.o)
 .bss           0x00000000        0x0 c:/devkitpro/devkitppc/bin/../lib/gcc/powerpc-gekko/4.2.4/../../../../powerpc-gekko/lib\libc.a(lib_a-printf.o)
 .data          0x00000000        0x0 c:/devkitpro/devkitppc/bin/../lib/gcc/powerpc-gekko/4.2.4/../../../../powerpc-gekko/lib\libc.a(lib_a-puts.o)
 .bss           0x00000000        0x0 c:/devkitpro/devkitppc/bin/../lib/gcc/powerpc-gekko/4.2.4/../../../../powerpc-gekko/lib\libc.a(lib_a-puts.o)
 .data          0x00000000        0x0 c:/devkitpro/devkitppc/bin/../lib/gcc/powerpc-gekko/4.2.4/../../../../powerpc-gekko/lib\libc.a(lib_a-reent.o)
 .bss           0x00000000        0x0 c:/devkitpro/devkitppc/bin/../lib/gcc/powerpc-gekko/4.2.4/../../../../powerpc-gekko/lib\libc.a(lib_a-reent.o)
 .data          0x00000000        0x0 c:/devkitpro/devkitppc/bin/../lib/gcc/powerpc-gekko/4.2.4/../../../../powerpc-gekko/lib\libc.a(lib_a-setvbuf.o)
 .bss           0x00000000        0x0 c:/devkitpro/devkitppc/bin/../lib/gcc/powerpc-gekko/4.2.4/../../../../powerpc-gekko/lib\libc.a(lib_a-setvbuf.o)
 .data          0x00000000        0x0 c:/devkitpro/devkitppc/bin/../lib/gcc/powerpc-gekko/4.2.4/../../../../powerpc-gekko/lib\libc.a(lib_a-snprintf.o)
 .bss           0x00000000        0x0 c:/devkitpro/devkitppc/bin/../lib/gcc/powerpc-gekko/4.2.4/../../../../powerpc-gekko/lib\libc.a(lib_a-snprintf.o)
 .text          0x00000000        0x0 c:/devkitpro/devkitppc/bin/../lib/gcc/powerpc-gekko/4.2.4/../../../../powerpc-gekko/lib\libc.a(lib_a-sprintf.o)
 .data          0x00000000        0x0 c:/devkitpro/devkitppc/bin/../lib/gcc/powerpc-gekko/4.2.4/../../../../powerpc-gekko/lib\libc.a(lib_a-sprintf.o)
 .bss           0x00000000        0x0 c:/devkitpro/devkitppc/bin/../lib/gcc/powerpc-gekko/4.2.4/../../../../powerpc-gekko/lib\libc.a(lib_a-sprintf.o)
 .data          0x00000000        0x0 c:/devkitpro/devkitppc/bin/../lib/gcc/powerpc-gekko/4.2.4/../../../../powerpc-gekko/lib\libc.a(lib_a-stdio.o)
 .bss           0x00000000        0x0 c:/devkitpro/devkitppc/bin/../lib/gcc/powerpc-gekko/4.2.4/../../../../powerpc-gekko/lib\libc.a(lib_a-stdio.o)
 .data          0x00000000        0x0 c:/devkitpro/devkitppc/bin/../lib/gcc/powerpc-gekko/4.2.4/../../../../powerpc-gekko/lib\libc.a(lib_a-strchr.o)
 .bss           0x00000000        0x0 c:/devkitpro/devkitppc/bin/../lib/gcc/powerpc-gekko/4.2.4/../../../../powerpc-gekko/lib\libc.a(lib_a-strchr.o)
 .data          0x00000000        0x0 c:/devkitpro/devkitppc/bin/../lib/gcc/powerpc-gekko/4.2.4/../../../../powerpc-gekko/lib\libc.a(lib_a-strcmp.o)
 .bss           0x00000000        0x0 c:/devkitpro/devkitppc/bin/../lib/gcc/powerpc-gekko/4.2.4/../../../../powerpc-gekko/lib\libc.a(lib_a-strcmp.o)
 .data          0x00000000        0x0 c:/devkitpro/devkitppc/bin/../lib/gcc/powerpc-gekko/4.2.4/../../../../powerpc-gekko/lib\libc.a(lib_a-strcpy.o)
 .bss           0x00000000        0x0 c:/devkitpro/devkitppc/bin/../lib/gcc/powerpc-gekko/4.2.4/../../../../powerpc-gekko/lib\libc.a(lib_a-strcpy.o)
 .data          0x00000000        0x0 c:/devkitpro/devkitppc/bin/../lib/gcc/powerpc-gekko/4.2.4/../../../../powerpc-gekko/lib\libc.a(lib_a-strerror.o)
 .bss           0x00000000        0x0 c:/devkitpro/devkitppc/bin/../lib/gcc/powerpc-gekko/4.2.4/../../../../powerpc-gekko/lib\libc.a(lib_a-strerror.o)
 .data          0x00000000        0x0 c:/devkitpro/devkitppc/bin/../lib/gcc/powerpc-gekko/4.2.4/../../../../powerpc-gekko/lib\libc.a(lib_a-strlen.o)
 .bss           0x00000000        0x0 c:/devkitpro/devkitppc/bin/../lib/gcc/powerpc-gekko/4.2.4/../../../../powerpc-gekko/lib\libc.a(lib_a-strlen.o)
 .data          0x00000000        0x0 c:/devkitpro/devkitppc/bin/../lib/gcc/powerpc-gekko/4.2.4/../../../../powerpc-gekko/lib\libc.a(lib_a-strncmp.o)
 .bss           0x00000000        0x0 c:/devkitpro/devkitppc/bin/../lib/gcc/powerpc-gekko/4.2.4/../../../../powerpc-gekko/lib\libc.a(lib_a-strncmp.o)
 .text          0x00000000        0x0 c:/devkitpro/devkitppc/bin/../lib/gcc/powerpc-gekko/4.2.4/../../../../powerpc-gekko/lib\libc.a(lib_a-strncpy.o)
 .data          0x00000000        0x0 c:/devkitpro/devkitppc/bin/../lib/gcc/powerpc-gekko/4.2.4/../../../../powerpc-gekko/lib\libc.a(lib_a-strncpy.o)
 .bss           0x00000000        0x0 c:/devkitpro/devkitppc/bin/../lib/gcc/powerpc-gekko/4.2.4/../../../../powerpc-gekko/lib\libc.a(lib_a-strncpy.o)
 .data          0x00000000        0x0 c:/devkitpro/devkitppc/bin/../lib/gcc/powerpc-gekko/4.2.4/../../../../powerpc-gekko/lib\libc.a(lib_a-strnlen.o)
 .bss           0x00000000        0x0 c:/devkitpro/devkitppc/bin/../lib/gcc/powerpc-gekko/4.2.4/../../../../powerpc-gekko/lib\libc.a(lib_a-strnlen.o)
 .data          0x00000000        0x0 c:/devkitpro/devkitppc/bin/../lib/gcc/powerpc-gekko/4.2.4/../../../../powerpc-gekko/lib\libc.a(lib_a-strtok.o)
 .bss           0x00000000        0x0 c:/devkitpro/devkitppc/bin/../lib/gcc/powerpc-gekko/4.2.4/../../../../powerpc-gekko/lib\libc.a(lib_a-strtok.o)
 .data          0x00000000        0x0 c:/devkitpro/devkitppc/bin/../lib/gcc/powerpc-gekko/4.2.4/../../../../powerpc-gekko/lib\libc.a(lib_a-strtok_r.o)
 .bss           0x00000000        0x0 c:/devkitpro/devkitppc/bin/../lib/gcc/powerpc-gekko/4.2.4/../../../../powerpc-gekko/lib\libc.a(lib_a-strtok_r.o)
 .data          0x00000000        0x0 c:/devkitpro/devkitppc/bin/../lib/gcc/powerpc-gekko/4.2.4/../../../../powerpc-gekko/lib\libc.a(lib_a-strtol.o)
 .bss           0x00000000        0x0 c:/devkitpro/devkitppc/bin/../lib/gcc/powerpc-gekko/4.2.4/../../../../powerpc-gekko/lib\libc.a(lib_a-strtol.o)
 .data          0x00000000        0x0 c:/devkitpro/devkitppc/bin/../lib/gcc/powerpc-gekko/4.2.4/../../../../powerpc-gekko/lib\libc.a(lib_a-strtoul.o)
 .bss           0x00000000        0x0 c:/devkitpro/devkitppc/bin/../lib/gcc/powerpc-gekko/4.2.4/../../../../powerpc-gekko/lib\libc.a(lib_a-strtoul.o)
 .data          0x00000000        0x0 c:/devkitpro/devkitppc/bin/../lib/gcc/powerpc-gekko/4.2.4/../../../../powerpc-gekko/lib\libc.a(lib_a-strtoull_r.o)
 .bss           0x00000000        0x0 c:/devkitpro/devkitppc/bin/../lib/gcc/powerpc-gekko/4.2.4/../../../../powerpc-gekko/lib\libc.a(lib_a-strtoull_r.o)
 .data          0x00000000        0x0 c:/devkitpro/devkitppc/bin/../lib/gcc/powerpc-gekko/4.2.4/../../../../powerpc-gekko/lib\libc.a(lib_a-syswrite.o)
 .bss           0x00000000        0x0 c:/devkitpro/devkitppc/bin/../lib/gcc/powerpc-gekko/4.2.4/../../../../powerpc-gekko/lib\libc.a(lib_a-syswrite.o)
 .data          0x00000000        0x0 c:/devkitpro/devkitppc/bin/../lib/gcc/powerpc-gekko/4.2.4/../../../../powerpc-gekko/lib\libc.a(lib_a-u_strerr.o)
 .bss           0x00000000        0x0 c:/devkitpro/devkitppc/bin/../lib/gcc/powerpc-gekko/4.2.4/../../../../powerpc-gekko/lib\libc.a(lib_a-u_strerr.o)
 .data          0x00000000        0x0 c:/devkitpro/devkitppc/bin/../lib/gcc/powerpc-gekko/4.2.4/../../../../powerpc-gekko/lib\libc.a(lib_a-vfprintf.o)
 .bss           0x00000000        0x0 c:/devkitpro/devkitppc/bin/../lib/gcc/powerpc-gekko/4.2.4/../../../../powerpc-gekko/lib\libc.a(lib_a-vfprintf.o)
 .data          0x00000000        0x0 c:/devkitpro/devkitppc/bin/../lib/gcc/powerpc-gekko/4.2.4/../../../../powerpc-gekko/lib\libc.a(lib_a-wcrtomb.o)
 .bss           0x00000000        0x0 c:/devkitpro/devkitppc/bin/../lib/gcc/powerpc-gekko/4.2.4/../../../../powerpc-gekko/lib\libc.a(lib_a-wcrtomb.o)
 .data          0x00000000        0x0 c:/devkitpro/devkitppc/bin/../lib/gcc/powerpc-gekko/4.2.4/../../../../powerpc-gekko/lib\libc.a(lib_a-wcsrtombs.o)
 .bss           0x00000000        0x0 c:/devkitpro/devkitppc/bin/../lib/gcc/powerpc-gekko/4.2.4/../../../../powerpc-gekko/lib\libc.a(lib_a-wcsrtombs.o)
 .data          0x00000000        0x0 c:/devkitpro/devkitppc/bin/../lib/gcc/powerpc-gekko/4.2.4/../../../../powerpc-gekko/lib\libc.a(lib_a-wctomb_r.o)
 .bss           0x00000000        0x0 c:/devkitpro/devkitppc/bin/../lib/gcc/powerpc-gekko/4.2.4/../../../../powerpc-gekko/lib\libc.a(lib_a-wctomb_r.o)
 .data          0x00000000        0x0 c:/devkitpro/devkitppc/bin/../lib/gcc/powerpc-gekko/4.2.4/../../../../powerpc-gekko/lib\libc.a(lib_a-wsetup.o)
 .bss           0x00000000        0x0 c:/devkitpro/devkitppc/bin/../lib/gcc/powerpc-gekko/4.2.4/../../../../powerpc-gekko/lib\libc.a(lib_a-wsetup.o)
 .data          0x00000000        0x0 c:/devkitpro/devkitppc/bin/../lib/gcc/powerpc-gekko/4.2.4/../../../../powerpc-gekko/lib\libc.a(lib_a-__call_atexit.o)
 .bss           0x00000000        0x0 c:/devkitpro/devkitppc/bin/../lib/gcc/powerpc-gekko/4.2.4/../../../../powerpc-gekko/lib\libc.a(lib_a-__call_atexit.o)
 .data          0x00000000        0x0 c:/devkitpro/devkitppc/bin/../lib/gcc/powerpc-gekko/4.2.4/../../../../powerpc-gekko/lib\libc.a(lib_a-dtoa.o)
 .bss           0x00000000        0x0 c:/devkitpro/devkitppc/bin/../lib/gcc/powerpc-gekko/4.2.4/../../../../powerpc-gekko/lib\libc.a(lib_a-dtoa.o)
 .data          0x00000000        0x0 c:/devkitpro/devkitppc/bin/../lib/gcc/powerpc-gekko/4.2.4/../../../../powerpc-gekko/lib\libc.a(lib_a-fclose.o)
 .bss           0x00000000        0x0 c:/devkitpro/devkitppc/bin/../lib/gcc/powerpc-gekko/4.2.4/../../../../powerpc-gekko/lib\libc.a(lib_a-fclose.o)
 .data          0x00000000        0x0 c:/devkitpro/devkitppc/bin/../lib/gcc/powerpc-gekko/4.2.4/../../../../powerpc-gekko/lib\libc.a(lib_a-fvwrite.o)
 .bss           0x00000000        0x0 c:/devkitpro/devkitppc/bin/../lib/gcc/powerpc-gekko/4.2.4/../../../../powerpc-gekko/lib\libc.a(lib_a-fvwrite.o)
 .bss           0x00000000        0x0 c:/devkitpro/devkitppc/bin/../lib/gcc/powerpc-gekko/4.2.4/../../../../powerpc-gekko/lib\libc.a(lib_a-locale.o)
 .sbss          0x00000000        0x0 c:/devkitpro/devkitppc/bin/../lib/gcc/powerpc-gekko/4.2.4/../../../../powerpc-gekko/lib\libc.a(lib_a-locale.o)
 .data          0x00000000        0x0 c:/devkitpro/devkitppc/bin/../lib/gcc/powerpc-gekko/4.2.4/../../../../powerpc-gekko/lib\libc.a(lib_a-makebuf.o)
 .bss           0x00000000        0x0 c:/devkitpro/devkitppc/bin/../lib/gcc/powerpc-gekko/4.2.4/../../../../powerpc-gekko/lib\libc.a(lib_a-makebuf.o)
 .data          0x00000000        0x0 c:/devkitpro/devkitppc/bin/../lib/gcc/powerpc-gekko/4.2.4/../../../../powerpc-gekko/lib\libc.a(lib_a-mbtowc_r.o)
 .bss           0x00000000        0x0 c:/devkitpro/devkitppc/bin/../lib/gcc/powerpc-gekko/4.2.4/../../../../powerpc-gekko/lib\libc.a(lib_a-mbtowc_r.o)
 .data          0x00000000        0x0 c:/devkitpro/devkitppc/bin/../lib/gcc/powerpc-gekko/4.2.4/../../../../powerpc-gekko/lib\libc.a(lib_a-memchr.o)
 .bss           0x00000000        0x0 c:/devkitpro/devkitppc/bin/../lib/gcc/powerpc-gekko/4.2.4/../../../../powerpc-gekko/lib\libc.a(lib_a-memchr.o)
 .data          0x00000000        0x0 c:/devkitpro/devkitppc/bin/../lib/gcc/powerpc-gekko/4.2.4/../../../../powerpc-gekko/lib\libc.a(lib_a-mprec.o)
 .bss           0x00000000        0x0 c:/devkitpro/devkitppc/bin/../lib/gcc/powerpc-gekko/4.2.4/../../../../powerpc-gekko/lib\libc.a(lib_a-mprec.o)
 .data          0x00000000        0x0 c:/devkitpro/devkitppc/bin/../lib/gcc/powerpc-gekko/4.2.4/../../../../powerpc-gekko/lib\libc.a(lib_a-reallocr.o)
 .bss           0x00000000        0x0 c:/devkitpro/devkitppc/bin/../lib/gcc/powerpc-gekko/4.2.4/../../../../powerpc-gekko/lib\libc.a(lib_a-reallocr.o)
 .data          0x00000000        0x0 c:/devkitpro/devkitppc/bin/../lib/gcc/powerpc-gekko/4.2.4/../../../../powerpc-gekko/lib\libc.a(lib_a-s_isinfd.o)
 .bss           0x00000000        0x0 c:/devkitpro/devkitppc/bin/../lib/gcc/powerpc-gekko/4.2.4/../../../../powerpc-gekko/lib\libc.a(lib_a-s_isinfd.o)
 .data          0x00000000        0x0 c:/devkitpro/devkitppc/bin/../lib/gcc/powerpc-gekko/4.2.4/../../../../powerpc-gekko/lib\libc.a(lib_a-s_isnand.o)
 .bss           0x00000000        0x0 c:/devkitpro/devkitppc/bin/../lib/gcc/powerpc-gekko/4.2.4/../../../../powerpc-gekko/lib\libc.a(lib_a-s_isnand.o)
 .data          0x00000000        0x0 c:/devkitpro/devkitppc/bin/../lib/gcc/powerpc-gekko/4.2.4/../../../../powerpc-gekko/lib\libsysbase.a(close.o)
 .bss           0x00000000        0x0 c:/devkitpro/devkitppc/bin/../lib/gcc/powerpc-gekko/4.2.4/../../../../powerpc-gekko/lib\libsysbase.a(close.o)
 .data          0x00000000        0x0 c:/devkitpro/devkitppc/bin/../lib/gcc/powerpc-gekko/4.2.4/../../../../powerpc-gekko/lib\libsysbase.a(fstat.o)
 .bss           0x00000000        0x0 c:/devkitpro/devkitppc/bin/../lib/gcc/powerpc-gekko/4.2.4/../../../../powerpc-gekko/lib\libsysbase.a(fstat.o)
 .data          0x00000000        0x0 c:/devkitpro/devkitppc/bin/../lib/gcc/powerpc-gekko/4.2.4/../../../../powerpc-gekko/lib\libsysbase.a(isatty.o)
 .bss           0x00000000        0x0 c:/devkitpro/devkitppc/bin/../lib/gcc/powerpc-gekko/4.2.4/../../../../powerpc-gekko/lib\libsysbase.a(isatty.o)
 .data          0x00000000        0x0 c:/devkitpro/devkitppc/bin/../lib/gcc/powerpc-gekko/4.2.4/../../../../powerpc-gekko/lib\libsysbase.a(lseek.o)
 .bss           0x00000000        0x0 c:/devkitpro/devkitppc/bin/../lib/gcc/powerpc-gekko/4.2.4/../../../../powerpc-gekko/lib\libsysbase.a(lseek.o)
 .data          0x00000000        0x0 c:/devkitpro/devkitppc/bin/../lib/gcc/powerpc-gekko/4.2.4/../../../../powerpc-gekko/lib\libsysbase.a(read.o)
 .bss           0x00000000        0x0 c:/devkitpro/devkitppc/bin/../lib/gcc/powerpc-gekko/4.2.4/../../../../powerpc-gekko/lib\libsysbase.a(read.o)
 .data          0x00000000        0x0 c:/devkitpro/devkitppc/bin/../lib/gcc/powerpc-gekko/4.2.4/../../../../powerpc-gekko/lib\libsysbase.a(sbrk.o)
 .bss           0x00000000        0x0 c:/devkitpro/devkitppc/bin/../lib/gcc/powerpc-gekko/4.2.4/../../../../powerpc-gekko/lib\libsysbase.a(sbrk.o)
 .data          0x00000000        0x0 c:/devkitpro/devkitppc/bin/../lib/gcc/powerpc-gekko/4.2.4/../../../../powerpc-gekko/lib\libsysbase.a(write.o)
 .bss           0x00000000        0x0 c:/devkitpro/devkitppc/bin/../lib/gcc/powerpc-gekko/4.2.4/../../../../powerpc-gekko/lib\libsysbase.a(write.o)
 .data          0x00000000        0x0 c:/devkitpro/devkitppc/bin/../lib/gcc/powerpc-gekko/4.2.4/../../../../powerpc-gekko/lib\libsysbase.a(flock.o)
 .bss           0x00000000        0x0 c:/devkitpro/devkitppc/bin/../lib/gcc/powerpc-gekko/4.2.4/../../../../powerpc-gekko/lib\libsysbase.a(flock.o)
 .data          0x00000000        0x0 c:/devkitpro/devkitppc/bin/../lib/gcc/powerpc-gekko/4.2.4/../../../../powerpc-gekko/lib\libsysbase.a(handle_manager.o)
 .data          0x00000000        0x0 c:/devkitpro/devkitppc/bin/../lib/gcc/powerpc-gekko/4.2.4\libgcc.a(_umoddi3.o)
 .bss           0x00000000        0x0 c:/devkitpro/devkitppc/bin/../lib/gcc/powerpc-gekko/4.2.4\libgcc.a(_umoddi3.o)
 .text          0x00000000        0x0 c:/devkitpro/devkitppc/bin/../lib/gcc/powerpc-gekko/4.2.4/crtsavres.o
 .data          0x00000000        0x0 c:/devkitpro/devkitppc/bin/../lib/gcc/powerpc-gekko/4.2.4/crtsavres.o
 .bss           0x00000000        0x0 c:/devkitpro/devkitppc/bin/../lib/gcc/powerpc-gekko/4.2.4/crtsavres.o
 .data          0x00000000        0x0 c:/devkitpro/devkitppc/bin/../lib/gcc/powerpc-gekko/4.2.4/crtend.o
 .bss           0x00000000        0x0 c:/devkitpro/devkitppc/bin/../lib/gcc/powerpc-gekko/4.2.4/crtend.o
 .text          0x00000000        0x0 c:/devkitpro/devkitppc/bin/../lib/gcc/powerpc-gekko/4.2.4/ecrtn.o
 .data          0x00000000        0x0 c:/devkitpro/devkitppc/bin/../lib/gcc/powerpc-gekko/4.2.4/ecrtn.o
 .bss           0x00000000        0x0 c:/devkitpro/devkitppc/bin/../lib/gcc/powerpc-gekko/4.2.4/ecrtn.o
 .got           0x00000000        0x0 c:/devkitpro/devkitppc/bin/../lib/gcc/powerpc-gekko/4.2.4/ecrtn.o
 .got1          0x00000000        0x0 c:/devkitpro/devkitppc/bin/../lib/gcc/powerpc-gekko/4.2.4/ecrtn.o
 .got2          0x00000000        0x0 c:/devkitpro/devkitppc/bin/../lib/gcc/powerpc-gekko/4.2.4/ecrtn.o
 .fixup         0x00000000        0x0 c:/devkitpro/devkitppc/bin/../lib/gcc/powerpc-gekko/4.2.4/ecrtn.o
 .sdata         0x00000000        0x0 c:/devkitpro/devkitppc/bin/../lib/gcc/powerpc-gekko/4.2.4/ecrtn.o
 .sbss          0x00000000        0x0 c:/devkitpro/devkitppc/bin/../lib/gcc/powerpc-gekko/4.2.4/ecrtn.o
 .sdata2        0x00000000        0x0 c:/devkitpro/devkitppc/bin/../lib/gcc/powerpc-gekko/4.2.4/ecrtn.o
 .sbss2         0x00000000        0x0 c:/devkitpro/devkitppc/bin/../lib/gcc/powerpc-gekko/4.2.4/ecrtn.o
 .gcc_except_table
                0x00000000        0x0 c:/devkitpro/devkitppc/bin/../lib/gcc/powerpc-gekko/4.2.4/ecrtn.o

Memory Configuration

Name             Origin             Length             Attributes
*default*        0x00000000         0xffffffff

Linker script and memory map

                0x00003400                . = 0x3400

.stub
 *(.stub)
                0x80004000                . = 0x80004000

.init           0x80004000      0x208
 *crt0.o(*.init)
 .init          0x80004000      0x1e4 c:/devkitPro/libogc/lib/wii\libogc.a(ogc_crt0.o)
                0x8000419c                _memset
                0x80004000                _start
                0x800041cc                video_line
 *(.init)
 .init          0x800041e4        0xc c:/devkitpro/devkitppc/bin/../lib/gcc/powerpc-gekko/4.2.4/ecrti.o
                0x800041e4                __init
 .init          0x800041f0        0x4 c:/devkitpro/devkitppc/bin/../lib/gcc/powerpc-gekko/4.2.4/crtbegin.o
 .init          0x800041f4        0x4 c:/devkitpro/devkitppc/bin/../lib/gcc/powerpc-gekko/4.2.4/crtend.o
 .init          0x800041f8       0x10 c:/devkitpro/devkitppc/bin/../lib/gcc/powerpc-gekko/4.2.4/ecrtn.o

.plt
 *(.plt)

.interp
 *(.interp)

.hash
 *(.hash)

.dynsym
 *(.dynsym)

.dynstr
 *(.dynstr)

.gnu.version
 *(.gnu.version)

.gnu.version_d
 *(.gnu.version_d)

.gnu.version_r
 *(.gnu.version_r)

.rel.init
 *(.rel.init)

.rela.init      0x80004208        0x0
 *(.rela.init)
 .rela.init     0x00000000        0x0 c:/devkitpro/devkitppc/bin/../lib/gcc/powerpc-gekko/4.2.4/crtbegin.o

.rel.text
 *(.rel.text .rel.text.* .rel.gnu.linkonce.t.*)

.rela.text      0x80004208        0x0
 *(.rela.text .rela.text.* .rela.gnu.linkonce.t.*)
 .rela.text     0x00000000        0x0 c:/devkitpro/devkitppc/bin/../lib/gcc/powerpc-gekko/4.2.4/crtbegin.o
 .rela.text.ircconnect
                0x00000000        0x0 c:/devkitpro/devkitppc/bin/../lib/gcc/powerpc-gekko/4.2.4/crtbegin.o
 .rela.text.tcpconnect
                0x00000000        0x0 c:/devkitpro/devkitppc/bin/../lib/gcc/powerpc-gekko/4.2.4/crtbegin.o
 .rela.text.wiiuse_init_cmd_queue
                0x00000000        0x0 c:/devkitpro/devkitppc/bin/../lib/gcc/powerpc-gekko/4.2.4/crtbegin.o
 .rela.text.wiiuse_init
                0x00000000        0x0 c:/devkitpro/devkitppc/bin/../lib/gcc/powerpc-gekko/4.2.4/crtbegin.o
 .rela.text.guitar_hero_3_handshake
                0x00000000        0x0 c:/devkitpro/devkitppc/bin/../lib/gcc/powerpc-gekko/4.2.4/crtbegin.o
 .rela.text.wiiuse_handshake_expansion
                0x00000000        0x0 c:/devkitpro/devkitppc/bin/../lib/gcc/powerpc-gekko/4.2.4/crtbegin.o
 .rela.text.wiiuse_handshake
                0x00000000        0x0 c:/devkitpro/devkitppc/bin/../lib/gcc/powerpc-gekko/4.2.4/crtbegin.o
 .rela.text.bt_alarmhandler
                0x00000000        0x0 c:/devkitpro/devkitppc/bin/../lib/gcc/powerpc-gekko/4.2.4/crtbegin.o
 .rela.text.CON_EnableGecko
                0x00000000        0x0 c:/devkitpro/devkitppc/bin/../lib/gcc/powerpc-gekko/4.2.4/crtbegin.o
 .rela.text.__console_init
                0x00000000        0x0 c:/devkitpro/devkitppc/bin/../lib/gcc/powerpc-gekko/4.2.4/crtbegin.o
 .rela.text.__console_init_ex
                0x00000000        0x0 c:/devkitpro/devkitppc/bin/../lib/gcc/powerpc-gekko/4.2.4/crtbegin.o
 .rela.text.__lwp_rotate_readyqueue
                0x00000000        0x0 c:/devkitpro/devkitppc/bin/../lib/gcc/powerpc-gekko/4.2.4/crtbegin.o
 .rela.text.__lwp_thread_setstate
                0x00000000        0x0 c:/devkitpro/devkitppc/bin/../lib/gcc/powerpc-gekko/4.2.4/crtbegin.o
 .rela.text.__lwp_thread_setpriority
                0x00000000        0x0 c:/devkitpro/devkitppc/bin/../lib/gcc/powerpc-gekko/4.2.4/crtbegin.o
 .rela.text.__lwp_thread_ready
                0x00000000        0x0 c:/devkitpro/devkitppc/bin/../lib/gcc/powerpc-gekko/4.2.4/crtbegin.o
 .rela.text.__lwp_thread_close
                0x00000000        0x0 c:/devkitpro/devkitppc/bin/../lib/gcc/powerpc-gekko/4.2.4/crtbegin.o
 .rela.text.__lwp_thread_closeall
                0x00000000        0x0 c:/devkitpro/devkitppc/bin/../lib/gcc/powerpc-gekko/4.2.4/crtbegin.o
 .rela.text.__lwp_thread_stopmultitasking
                0x00000000        0x0 c:/devkitpro/devkitppc/bin/../lib/gcc/powerpc-gekko/4.2.4/crtbegin.o
 .rela.text.__lwp_thread_changepriority
                0x00000000        0x0 c:/devkitpro/devkitppc/bin/../lib/gcc/powerpc-gekko/4.2.4/crtbegin.o
 .rela.text.__lwp_thread_coreinit
                0x00000000        0x0 c:/devkitpro/devkitppc/bin/../lib/gcc/powerpc-gekko/4.2.4/crtbegin.o
 .rela.text.__lwp_thread_suspend
                0x00000000        0x0 c:/devkitpro/devkitppc/bin/../lib/gcc/powerpc-gekko/4.2.4/crtbegin.o
 .rela.text.__lwp_thread_startmultitasking
                0x00000000        0x0 c:/devkitpro/devkitppc/bin/../lib/gcc/powerpc-gekko/4.2.4/crtbegin.o
 .rela.text.__lwp_thread_tickle_timeslice
                0x00000000        0x0 c:/devkitpro/devkitppc/bin/../lib/gcc/powerpc-gekko/4.2.4/crtbegin.o
 .rela.text.__lwp_thread_context
                0x00000000        0x0 c:/devkitpro/devkitppc/bin/../lib/gcc/powerpc-gekko/4.2.4/crtbegin.o
 .rela.text.__lwp_thread_exists
                0x00000000        0x0 c:/devkitpro/devkitppc/bin/../lib/gcc/powerpc-gekko/4.2.4/crtbegin.o
 .rela.text.__lwp_thread_isalive
                0x00000000        0x0 c:/devkitpro/devkitppc/bin/../lib/gcc/powerpc-gekko/4.2.4/crtbegin.o
 .rela.text.__lwp_sysinit
                0x00000000        0x0 c:/devkitpro/devkitppc/bin/../lib/gcc/powerpc-gekko/4.2.4/crtbegin.o
 .rela.text.LWP_ThreadSignal
                0x00000000        0x0 c:/devkitpro/devkitppc/bin/../lib/gcc/powerpc-gekko/4.2.4/crtbegin.o
 .rela.text.LWP_ThreadBroadcast
                0x00000000        0x0 c:/devkitpro/devkitppc/bin/../lib/gcc/powerpc-gekko/4.2.4/crtbegin.o
 .rela.text.LWP_ThreadSleep
                0x00000000        0x0 c:/devkitpro/devkitppc/bin/../lib/gcc/powerpc-gekko/4.2.4/crtbegin.o
 .rela.text.LWP_CloseQueue
                0x00000000        0x0 c:/devkitpro/devkitppc/bin/../lib/gcc/powerpc-gekko/4.2.4/crtbegin.o
 .rela.text.LWP_InitQueue
                0x00000000        0x0 c:/devkitpro/devkitppc/bin/../lib/gcc/powerpc-gekko/4.2.4/crtbegin.o
 .rela.text.LWP_JoinThread
                0x00000000        0x0 c:/devkitpro/devkitppc/bin/../lib/gcc/powerpc-gekko/4.2.4/crtbegin.o
 .rela.text.LWP_ThreadIsSuspended
                0x00000000        0x0 c:/devkitpro/devkitppc/bin/../lib/gcc/powerpc-gekko/4.2.4/crtbegin.o
 .rela.text.LWP_SetThreadPriority
                0x00000000        0x0 c:/devkitpro/devkitppc/bin/../lib/gcc/powerpc-gekko/4.2.4/crtbegin.o
 .rela.text.LWP_ResumeThread
                0x00000000        0x0 c:/devkitpro/devkitppc/bin/../lib/gcc/powerpc-gekko/4.2.4/crtbegin.o
 .rela.text.LWP_SuspendThread
                0x00000000        0x0 c:/devkitpro/devkitppc/bin/../lib/gcc/powerpc-gekko/4.2.4/crtbegin.o
 .rela.text.LWP_CreateThread
                0x00000000        0x0 c:/devkitpro/devkitppc/bin/../lib/gcc/powerpc-gekko/4.2.4/crtbegin.o
 .rela.text.__lwp_stack_free
                0x00000000        0x0 c:/devkitpro/devkitppc/bin/../lib/gcc/powerpc-gekko/4.2.4/crtbegin.o
 .rela.text.__lwp_stack_allocate
                0x00000000        0x0 c:/devkitpro/devkitppc/bin/../lib/gcc/powerpc-gekko/4.2.4/crtbegin.o
 .rela.text.__lwp_watchdog_init
                0x00000000        0x0 c:/devkitpro/devkitppc/bin/../lib/gcc/powerpc-gekko/4.2.4/crtbegin.o
 .rela.text.__lwp_wd_tickle
                0x00000000        0x0 c:/devkitpro/devkitppc/bin/../lib/gcc/powerpc-gekko/4.2.4/crtbegin.o
 .rela.text.__lwp_wkspace_init
                0x00000000        0x0 c:/devkitpro/devkitppc/bin/../lib/gcc/powerpc-gekko/4.2.4/crtbegin.o
 .rela.text.__lwp_wkspace_heapused
                0x00000000        0x0 c:/devkitpro/devkitppc/bin/../lib/gcc/powerpc-gekko/4.2.4/crtbegin.o
 .rela.text.__lwp_wkspace_heapfree
                0x00000000        0x0 c:/devkitpro/devkitppc/bin/../lib/gcc/powerpc-gekko/4.2.4/crtbegin.o
 .rela.text.__lwp_objmgr_initinfo
                0x00000000        0x0 c:/devkitpro/devkitppc/bin/../lib/gcc/powerpc-gekko/4.2.4/crtbegin.o
 .rela.text.__irq_init
                0x00000000        0x0 c:/devkitpro/devkitppc/bin/../lib/gcc/powerpc-gekko/4.2.4/crtbegin.o
 .rela.text.__sram_sync
                0x00000000        0x0 c:/devkitpro/devkitppc/bin/../lib/gcc/powerpc-gekko/4.2.4/crtbegin.o
 .rela.text.__locksram
                0x00000000        0x0 c:/devkitpro/devkitppc/bin/../lib/gcc/powerpc-gekko/4.2.4/crtbegin.o
 .rela.text.__sram_init
                0x00000000        0x0 c:/devkitpro/devkitppc/bin/../lib/gcc/powerpc-gekko/4.2.4/crtbegin.o
 .rela.text.SYS_Init
                0x00000000        0x0 c:/devkitpro/devkitppc/bin/../lib/gcc/powerpc-gekko/4.2.4/crtbegin.o
 .rela.text.__unlocksram
                0x00000000        0x0 c:/devkitpro/devkitppc/bin/../lib/gcc/powerpc-gekko/4.2.4/crtbegin.o
 .rela.text.__sram_writecallback
                0x00000000        0x0 c:/devkitpro/devkitppc/bin/../lib/gcc/powerpc-gekko/4.2.4/crtbegin.o
 .rela.text.SYS_CancelAlarm
                0x00000000        0x0 c:/devkitpro/devkitppc/bin/../lib/gcc/powerpc-gekko/4.2.4/crtbegin.o
 .rela.text.SYS_RemoveAlarm
                0x00000000        0x0 c:/devkitpro/devkitppc/bin/../lib/gcc/powerpc-gekko/4.2.4/crtbegin.o
 .rela.text.SYS_SetAlarm
                0x00000000        0x0 c:/devkitpro/devkitppc/bin/../lib/gcc/powerpc-gekko/4.2.4/crtbegin.o
 .rela.text.__sys_alarmhandler
                0x00000000        0x0 c:/devkitpro/devkitppc/bin/../lib/gcc/powerpc-gekko/4.2.4/crtbegin.o
 .rela.text.SYS_SetPeriodicAlarm
                0x00000000        0x0 c:/devkitpro/devkitppc/bin/../lib/gcc/powerpc-gekko/4.2.4/crtbegin.o
 .rela.text.__lwp_cond_init
                0x00000000        0x0 c:/devkitpro/devkitppc/bin/../lib/gcc/powerpc-gekko/4.2.4/crtbegin.o
 .rela.text.LWP_CondDestroy
                0x00000000        0x0 c:/devkitpro/devkitppc/bin/../lib/gcc/powerpc-gekko/4.2.4/crtbegin.o
 .rela.text.LWP_CondInit
                0x00000000        0x0 c:/devkitpro/devkitppc/bin/../lib/gcc/powerpc-gekko/4.2.4/crtbegin.o
 .rela.text.__lwp_cond_signalsupp
                0x00000000        0x0 c:/devkitpro/devkitppc/bin/../lib/gcc/powerpc-gekko/4.2.4/crtbegin.o
 .rela.text.__lwp_cond_waitsupp
                0x00000000        0x0 c:/devkitpro/devkitppc/bin/../lib/gcc/powerpc-gekko/4.2.4/crtbegin.o
 .rela.text.c_decrementer_handler
                0x00000000        0x0 c:/devkitpro/devkitppc/bin/../lib/gcc/powerpc-gekko/4.2.4/crtbegin.o
 .rela.text.__lwp_mqbox_init
                0x00000000        0x0 c:/devkitpro/devkitppc/bin/../lib/gcc/powerpc-gekko/4.2.4/crtbegin.o
 .rela.text.MQ_Close
                0x00000000        0x0 c:/devkitpro/devkitppc/bin/../lib/gcc/powerpc-gekko/4.2.4/crtbegin.o
 .rela.text.MQ_Init
                0x00000000        0x0 c:/devkitpro/devkitppc/bin/../lib/gcc/powerpc-gekko/4.2.4/crtbegin.o
 .rela.text.MQ_Jam
                0x00000000        0x0 c:/devkitpro/devkitppc/bin/../lib/gcc/powerpc-gekko/4.2.4/crtbegin.o
 .rela.text.MQ_Receive
                0x00000000        0x0 c:/devkitpro/devkitppc/bin/../lib/gcc/powerpc-gekko/4.2.4/crtbegin.o
 .rela.text.MQ_Send
                0x00000000        0x0 c:/devkitpro/devkitppc/bin/../lib/gcc/powerpc-gekko/4.2.4/crtbegin.o
 .rela.text.__ios_ioctlvformat_parse
                0x00000000        0x0 c:/devkitpro/devkitppc/bin/../lib/gcc/powerpc-gekko/4.2.4/crtbegin.o
 .rela.text.__ioctlvfmtCB
                0x00000000        0x0 c:/devkitpro/devkitppc/bin/../lib/gcc/powerpc-gekko/4.2.4/crtbegin.o
 .rela.text.IOS_IoctlvFormatAsync
                0x00000000        0x0 c:/devkitpro/devkitppc/bin/../lib/gcc/powerpc-gekko/4.2.4/crtbegin.o
 .rela.text.IOS_IoctlvFormat
                0x00000000        0x0 c:/devkitpro/devkitppc/bin/../lib/gcc/powerpc-gekko/4.2.4/crtbegin.o
 .rela.text.nanosleep
                0x00000000        0x0 c:/devkitpro/devkitppc/bin/../lib/gcc/powerpc-gekko/4.2.4/crtbegin.o
 .rela.text.__libc_init
                0x00000000        0x0 c:/devkitpro/devkitppc/bin/../lib/gcc/powerpc-gekko/4.2.4/crtbegin.o
 .rela.text.__libc_wrapup
                0x00000000        0x0 c:/devkitpro/devkitppc/bin/../lib/gcc/powerpc-gekko/4.2.4/crtbegin.o
 .rela.text.__libc_delete_hook
                0x00000000        0x0 c:/devkitpro/devkitppc/bin/../lib/gcc/powerpc-gekko/4.2.4/crtbegin.o
 .rela.text.__CheckARGV
                0x00000000        0x0 c:/devkitpro/devkitppc/bin/../lib/gcc/powerpc-gekko/4.2.4/crtbegin.o
 .rela.text.__lwp_priority_init
                0x00000000        0x0 c:/devkitpro/devkitppc/bin/../lib/gcc/powerpc-gekko/4.2.4/crtbegin.o
 .rela.text.__lwp_threadqueue_extractpriority
                0x00000000        0x0 c:/devkitpro/devkitppc/bin/../lib/gcc/powerpc-gekko/4.2.4/crtbegin.o
 .rela.text.__lwp_threadqueue_extractfifo
                0x00000000        0x0 c:/devkitpro/devkitppc/bin/../lib/gcc/powerpc-gekko/4.2.4/crtbegin.o
 .rela.text.__lwp_threadqueue_dequeuepriority
                0x00000000        0x0 c:/devkitpro/devkitppc/bin/../lib/gcc/powerpc-gekko/4.2.4/crtbegin.o
 .rela.text.__lwp_threadqueue_enqueuepriority
                0x00000000        0x0 c:/devkitpro/devkitppc/bin/../lib/gcc/powerpc-gekko/4.2.4/crtbegin.o
 .rela.text.__lwp_threadqueue_dequeuefifo
                0x00000000        0x0 c:/devkitpro/devkitppc/bin/../lib/gcc/powerpc-gekko/4.2.4/crtbegin.o
 .rela.text.__lwp_threadqueue_enqueuefifo
                0x00000000        0x0 c:/devkitpro/devkitppc/bin/../lib/gcc/powerpc-gekko/4.2.4/crtbegin.o
 .rela.text.__lwp_threadqueue_enqueue
                0x00000000        0x0 c:/devkitpro/devkitppc/bin/../lib/gcc/powerpc-gekko/4.2.4/crtbegin.o
 .rela.text.__lwpmq_close
                0x00000000        0x0 c:/devkitpro/devkitppc/bin/../lib/gcc/powerpc-gekko/4.2.4/crtbegin.o
 .rela.text.__lwpmq_initialize
                0x00000000        0x0 c:/devkitpro/devkitppc/bin/../lib/gcc/powerpc-gekko/4.2.4/crtbegin.o
 .rela.text.__exception_sethandler
                0x00000000        0x0 c:/devkitpro/devkitppc/bin/../lib/gcc/powerpc-gekko/4.2.4/crtbegin.o
 .rela.text.__exception_init
                0x00000000        0x0 c:/devkitpro/devkitppc/bin/../lib/gcc/powerpc-gekko/4.2.4/crtbegin.o
 .rela.text.__systemcall_init
                0x00000000        0x0 c:/devkitpro/devkitppc/bin/../lib/gcc/powerpc-gekko/4.2.4/crtbegin.o
 .rela.text.__lwp_sema_init
                0x00000000        0x0 c:/devkitpro/devkitppc/bin/../lib/gcc/powerpc-gekko/4.2.4/crtbegin.o
 .rela.text.LWP_SemInit
                0x00000000        0x0 c:/devkitpro/devkitppc/bin/../lib/gcc/powerpc-gekko/4.2.4/crtbegin.o
 .rela.text.LWP_SemDestroy
                0x00000000        0x0 c:/devkitpro/devkitppc/bin/../lib/gcc/powerpc-gekko/4.2.4/crtbegin.o
 .rela.text.LWP_SemPost
                0x00000000        0x0 c:/devkitpro/devkitppc/bin/../lib/gcc/powerpc-gekko/4.2.4/crtbegin.o
 .rela.text.LWP_SemWait
                0x00000000        0x0 c:/devkitpro/devkitppc/bin/../lib/gcc/powerpc-gekko/4.2.4/crtbegin.o
 .rela.text.LWP_MutexInit
                0x00000000        0x0 c:/devkitpro/devkitppc/bin/../lib/gcc/powerpc-gekko/4.2.4/crtbegin.o
 .rela.text.__lwp_mutex_init
                0x00000000        0x0 c:/devkitpro/devkitppc/bin/../lib/gcc/powerpc-gekko/4.2.4/crtbegin.o
 .rela.text.LWP_MutexDestroy
                0x00000000        0x0 c:/devkitpro/devkitppc/bin/../lib/gcc/powerpc-gekko/4.2.4/crtbegin.o
 .rela.text.__lwp_mutex_locksupp
                0x00000000        0x0 c:/devkitpro/devkitppc/bin/../lib/gcc/powerpc-gekko/4.2.4/crtbegin.o
 .rela.text.LWP_MutexUnlock
                0x00000000        0x0 c:/devkitpro/devkitppc/bin/../lib/gcc/powerpc-gekko/4.2.4/crtbegin.o
 .rela.text.kprintf
                0x00000000        0x0 c:/devkitpro/devkitppc/bin/../lib/gcc/powerpc-gekko/4.2.4/crtbegin.o

.rel.fini
 *(.rel.fini)

.rela.fini
 *(.rela.fini)

.rel.rodata
 *(.rel.rodata .rel.rodata.* .rel.gnu.linkonce.r.*)

.rela.rodata
 *(.rela.rodata .rela.rodata.* .rela.gnu.linkonce.r.*)

.rel.data
 *(.rel.data .rel.data.* .rel.gnu.linkonce.d.*)

.rela.data
 *(.rela.data .rela.data.* .rela.gnu.linkonce.d.*)

.rel.tdata
 *(.rel.tdata .rel.tdata.* .rel.gnu.linkonce.td.*)

.rela.tdata
 *(.rela.tdata .rela.tdata.* .rela.gnu.linkonce.td.*)

.rel.tbss
 *(.rel.tbss .rel.tbss.* .rel.gnu.linkonce.tb.*)

.rela.tbss
 *(.rela.tbss .rela.tbss.* .rela.gnu.linkonce.tb.*)

.rel.ctors
 *(.rel.ctors)

.rela.ctors
 *(.rela.ctors)

.rel.dtors
 *(.rel.dtors)

.rela.dtors
 *(.rela.dtors)

.rel.got
 *(.rel.got)

.rela.got
 *(.rela.got)

.rela.got1
 *(.rela.got1)

.rela.got2      0x80004208        0x0
 *(.rela.got2)
 .rela.got2     0x00000000        0x0 c:/devkitpro/devkitppc/bin/../lib/gcc/powerpc-gekko/4.2.4/crtbegin.o

.rel.sdata
 *(.rel.sdata .rel.sdata.* .rel.gnu.linkonce.s.*)

.rela.sdata
 *(.rela.sdata .rela.sdata.* .rela.gnu.linkonce.s.*)

.rel.sbss
 *(.rel.sbss .rel.sbss.* .rel.gnu.linkonce.sb.*)

.rela.sbss
 *(.rela.sbss .rela.sbss.* .rel.gnu.linkonce.sb.*)

.rel.sdata2
 *(.rel.sdata2 .rel.sdata2.* .rel.gnu.linkonce.s2.*)

.rela.sdata2    0x80004208        0x0
 *(.rela.sdata2 .rela.sdata2.* .rela.gnu.linkonce.s2.*)
 .rela.sdata2.__sys_inIPL
                0x00000000        0x0 c:/devkitpro/devkitppc/bin/../lib/gcc/powerpc-gekko/4.2.4/crtbegin.o

.rel.sbss2
 *(.rel.sbss2 .rel.sbss2.* .rel.gnu.linkonce.sb2.*)

.rela.sbss2
 *(.rela.sbss2 .rela.sbss2.* .rela.gnu.linkonce.sb2.*)

.rel.bss
 *(.rel.bss .rel.bss.* .rel.gnu.linkonce.b.*)

.rela.bss
 *(.rela.bss .rela.bss.* .rela.gnu.linkonce.b.*)

.rel.plt
 *(.rel.plt)

.rela.plt
 *(.rela.plt)

.text           0x80004220    0x31aa0
 *(.text)
 .text          0x80004220      0x140 c:/devkitpro/devkitppc/bin/../lib/gcc/powerpc-gekko/4.2.4/crtbegin.o
 .text          0x80004360       0x48 c:/devkitpro/devkitppc/bin/../lib/gcc/powerpc-gekko/4.2.4/../../../../powerpc-gekko/lib/crtmain.o
                0x80004364                __crtmain
 *fill*         0x800043a8       0x18 00000000
 .text          0x800043c0      0x4ec c:/devkitPro/libogc/lib/wii\libogc.a(lwp_handler.o)
                0x80004500                _cpu_context_restore_fp
                0x800047c0                _cpu_context_save
                0x800043c0                _cpu_context_save_fp
                0x80004640                _cpu_context_switch
                0x80004840                _cpu_context_restore
 .text          0x800048ac      0x5c4 c:/devkitPro/libogc/lib/wii\libogc.a(system_asm.o)
                0x80004944                __configMEM1_48Mb
                0x80004dd0                __reset
                0x800048ac                __realmode
                0x80004cb4                __CacheInit
                0x80004aa4                __configMEM2_64Mb
                0x80004d18                __SystemInit
                0x80004c00                __configMEM2_128Mb
                0x800048c4                __configMEM1_24Mb
                0x80004c7c                __PSInit
                0x800049c4                __configMEM2_56Mb
                0x80004b20                __configMEM2_112Mb
                0x80004d9c                __flush_cache
                0x80004e40                SYS_SwitchFiber
 .text          0x80004e70      0x1b0 c:/devkitPro/libogc/lib/wii\libogc.a(irq_handler.o)
                0x80004e70                irq_exceptionhandler
 .text          0x80005020      0x4d8 c:/devkitPro/libogc/lib/wii\libogc.a(cache_asm.o)
                0x800052fc                L2Disable
                0x80005084                DCBlockZero
                0x8000513c                DCFlushRangeNoSync
                0x80005290                ICBlockInvalidate
                0x80005020                DCFlashInvalidate
                0x8000508c                DCBlockStore
                0x8000519c                DCZeroRange
                0x800054b0                LCLoadBlocks
                0x8000507c                DCTouchLoad
                0x80005470                LCAllocTags
                0x80005258                ICDisable
                0x80005244                ICEnable
                0x80005314                L2GlobalInvalidate
                0x800054d4                LCStoreBlocks
                0x80005234                ICFlashInvalidate
                0x800051cc                DCTouchRange
                0x8000516c                DCStoreRangeNoSync
                0x8000526c                ICFreeze
                0x80005044                DCDisable
                0x80005094                DCBlockFlush
                0x80005030                DCEnable
                0x800052e8                L2Enable
                0x8000536c                __LCEnable
                0x800050a4                DCInvalidateRange
                0x8000545c                LCAllocOneTag
                0x8000506c                DCUnfreeze
                0x800051fc                ICInvalidateRange
                0x800050d4                DCFlushRange
                0x80005298                ICSync
                0x8000509c                DCBlockInvalidate
                0x80005058                DCFreeze
                0x800052a0                L2Init
                0x80005280                ICUnfreeze
                0x80005108                DCStoreRange
                0x80005434                LCDisable
 .text          0x800054f8      0x1b0 c:/devkitPro/libogc/lib/wii\libogc.a(decrementer_handler.o)
                0x800054f8                dec_exceptionhandler
 .text          0x800056a8      0x34c c:/devkitPro/libogc/lib/wii\libogc.a(exception_handler.o)
                0x800056a8                exceptionhandler_start
                0x8000575c                default_exceptionhandler
                0x800059f0                systemcallhandler_end
                0x800059d4                systemcallhandler_start
                0x80005758                exceptionhandler_end
                0x80005724                exceptionhandler_patch
                0x8000589c                fpu_exceptionhandler
 .text          0x800059f4       0x34 c:/devkitpro/devkitppc/bin/../lib/gcc/powerpc-gekko/4.2.4/../../../../powerpc-gekko/lib\libm.a(lib_a-s_atan2.o)
                0x800059f4                atan2
 .text          0x80005a28      0x284 c:/devkitpro/devkitppc/bin/../lib/gcc/powerpc-gekko/4.2.4/../../../../powerpc-gekko/lib\libm.a(lib_a-s_atangent.o)
                0x80005a28                atangent
 .text          0x80005cac       0x24 c:/devkitpro/devkitppc/bin/../lib/gcc/powerpc-gekko/4.2.4/../../../../powerpc-gekko/lib\libm.a(lib_a-s_cos.o)
                0x80005cac                cos
 .text          0x80005cd0       0xb4 c:/devkitpro/devkitppc/bin/../lib/gcc/powerpc-gekko/4.2.4/../../../../powerpc-gekko/lib\libm.a(lib_a-s_fabs.o)
                0x80005cd0                fabs
 .text          0x80005d84       0xb4 c:/devkitpro/devkitppc/bin/../lib/gcc/powerpc-gekko/4.2.4/../../../../powerpc-gekko/lib\libm.a(lib_a-s_frexp.o)
                0x80005d84                frexp
 .text          0x80005e38       0x50 c:/devkitpro/devkitppc/bin/../lib/gcc/powerpc-gekko/4.2.4/../../../../powerpc-gekko/lib\libm.a(lib_a-s_numtest.o)
                0x80005e38                numtest
 .text          0x80005e88       0x24 c:/devkitpro/devkitppc/bin/../lib/gcc/powerpc-gekko/4.2.4/../../../../powerpc-gekko/lib\libm.a(lib_a-s_sin.o)
                0x80005e88                sin
 .text          0x80005eac      0x2c4 c:/devkitpro/devkitppc/bin/../lib/gcc/powerpc-gekko/4.2.4/../../../../powerpc-gekko/lib\libm.a(lib_a-s_sine.o)
                0x80005eac                sine
 .text          0x80006170      0x184 c:/devkitpro/devkitppc/bin/../lib/gcc/powerpc-gekko/4.2.4/../../../../powerpc-gekko/lib\libm.a(lib_a-s_sqrt.o)
                0x80006170                sqrt
 .text          0x800062f4       0xc8 c:/devkitpro/devkitppc/bin/../lib/gcc/powerpc-gekko/4.2.4/../../../../powerpc-gekko/lib\libm.a(lib_a-sf_atan.o)
                0x800062f4                atanf
 .text          0x800063bc       0x38 c:/devkitpro/devkitppc/bin/../lib/gcc/powerpc-gekko/4.2.4/../../../../powerpc-gekko/lib\libm.a(lib_a-sf_atan2.o)
                0x800063bc                atan2f
 .text          0x800063f4      0x250 c:/devkitpro/devkitppc/bin/../lib/gcc/powerpc-gekko/4.2.4/../../../../powerpc-gekko/lib\libm.a(lib_a-sf_atangent.o)
                0x800063f4                atangentf
 .text          0x80006644       0x24 c:/devkitpro/devkitppc/bin/../lib/gcc/powerpc-gekko/4.2.4/../../../../powerpc-gekko/lib\libm.a(lib_a-sf_cos.o)
                0x80006644                cosf
 .text          0x80006668       0xb4 c:/devkitpro/devkitppc/bin/../lib/gcc/powerpc-gekko/4.2.4/../../../../powerpc-gekko/lib\libm.a(lib_a-sf_fabs.o)
                0x80006668                fabsf
 .text          0x8000671c       0xa8 c:/devkitpro/devkitppc/bin/../lib/gcc/powerpc-gekko/4.2.4/../../../../powerpc-gekko/lib\libm.a(lib_a-sf_fpclassify.o)
                0x8000671c                __fpclassifyf
 .text          0x800067c4       0x90 c:/devkitpro/devkitppc/bin/../lib/gcc/powerpc-gekko/4.2.4/../../../../powerpc-gekko/lib\libm.a(lib_a-sf_frexp.o)
                0x800067c4                frexpf
 .text          0x80006854       0x24 c:/devkitpro/devkitppc/bin/../lib/gcc/powerpc-gekko/4.2.4/../../../../powerpc-gekko/lib\libm.a(lib_a-sf_isinff.o)
                0x80006854                __isinff
 .text          0x80006878       0x28 c:/devkitpro/devkitppc/bin/../lib/gcc/powerpc-gekko/4.2.4/../../../../powerpc-gekko/lib\libm.a(lib_a-sf_isnanf.o)
                0x80006878                __isnanf
 .text          0x800068a0       0x48 c:/devkitpro/devkitppc/bin/../lib/gcc/powerpc-gekko/4.2.4/../../../../powerpc-gekko/lib\libm.a(lib_a-sf_numtest.o)
                0x800068a0                numtestf
 .text          0x800068e8       0x24 c:/devkitpro/devkitppc/bin/../lib/gcc/powerpc-gekko/4.2.4/../../../../powerpc-gekko/lib\libm.a(lib_a-sf_sin.o)
                0x800068e8                sinf
 .text          0x8000690c      0x2b8 c:/devkitpro/devkitppc/bin/../lib/gcc/powerpc-gekko/4.2.4/../../../../powerpc-gekko/lib\libm.a(lib_a-sf_sine.o)
                0x8000690c                sinef
 .text          0x80006bc4      0x190 c:/devkitpro/devkitppc/bin/../lib/gcc/powerpc-gekko/4.2.4/../../../../powerpc-gekko/lib\libm.a(lib_a-sf_sqrt.o)
                0x80006bc4                sqrtf
 .text          0x80006d54       0x1c c:/devkitpro/devkitppc/bin/../lib/gcc/powerpc-gekko/4.2.4/../../../../powerpc-gekko/lib\libm.a(lib_a-s_ispos.o)
                0x80006d54                ispos
 .text          0x80006d70      0x154 c:/devkitpro/devkitppc/bin/../lib/gcc/powerpc-gekko/4.2.4/../../../../powerpc-gekko/lib\libm.a(lib_a-s_ldexp.o)
                0x80006d70                ldexp
 .text          0x80006ec4       0x1c c:/devkitpro/devkitppc/bin/../lib/gcc/powerpc-gekko/4.2.4/../../../../powerpc-gekko/lib\libm.a(lib_a-sf_ispos.o)
                0x80006ec4                isposf
 .text          0x80006ee0      0x14c c:/devkitpro/devkitppc/bin/../lib/gcc/powerpc-gekko/4.2.4/../../../../powerpc-gekko/lib\libm.a(lib_a-sf_ldexp.o)
                0x80006ee0                ldexpf
 .text          0x8000702c      0x408 c:/devkitpro/devkitppc/bin/../lib/gcc/powerpc-gekko/4.2.4\libgcc.a(_udivdi3.o)
                0x8000702c                __udivdi3
 .text          0x80007434       0x28 c:/devkitpro/devkitppc/bin/../lib/gcc/powerpc-gekko/4.2.4/../../../../powerpc-gekko/lib\libsysbase.a(abort.o)
                0x80007434                abort
 .text          0x8000745c      0x2c4 c:/devkitpro/devkitppc/bin/../lib/gcc/powerpc-gekko/4.2.4/../../../../powerpc-gekko/lib\libsysbase.a(iosupport.o)
                0x800076d0                RemoveDevice
                0x8000745c                setDefaultDevice
                0x80007474                AddDevice
                0x8000768c                GetDeviceOpTab
                0x8000759c                FindDevice
 .text          0x80007720       0x28 c:/devkitpro/devkitppc/bin/../lib/gcc/powerpc-gekko/4.2.4/../../../../powerpc-gekko/lib\libsysbase.a(_exit.o)
                0x80007720                _exit
 .text          0x80007748       0x9c c:/devkitpro/devkitppc/bin/../lib/gcc/powerpc-gekko/4.2.4/../../../../powerpc-gekko/lib\libsysbase.a(build_argv.o)
                0x80007748                build_argv
 .text          0x800077e4      0x168 c:/devkitpro/devkitppc/bin/../lib/gcc/powerpc-gekko/4.2.4/../../../../powerpc-gekko/lib\libsysbase.a(syscall_support.o)
                0x80007918                __malloc_unlock
                0x80007864                __libc_lock_release
                0x800077e4                __libc_lock_init
                0x800078e4                __malloc_lock
                0x80007824                __libc_lock_close
                0x800078a4                __libc_lock_acquire
 .text          0x8000794c       0x50 c:/devkitpro/devkitppc/bin/../lib/gcc/powerpc-gekko/4.2.4/../../../../powerpc-gekko/lib\libc.a(lib_a-atoi.o)
                0x8000794c                _atoi_r
                0x80007974                atoi
 .text          0x8000799c       0x34 c:/devkitpro/devkitppc/bin/../lib/gcc/powerpc-gekko/4.2.4/../../../../powerpc-gekko/lib\libc.a(lib_a-calloc.o)
                0x8000799c                calloc
 .text          0x800079d0       0xd0 c:/devkitpro/devkitppc/bin/../lib/gcc/powerpc-gekko/4.2.4/../../../../powerpc-gekko/lib\libc.a(lib_a-callocr.o)
                0x800079d0                _calloc_r
 .text          0x80007aa0        0xc c:/devkitpro/devkitppc/bin/../lib/gcc/powerpc-gekko/4.2.4/../../../../powerpc-gekko/lib\libc.a(lib_a-errno.o)
                0x80007aa0                __errno
 .text          0x80007aac       0x40 c:/devkitpro/devkitppc/bin/../lib/gcc/powerpc-gekko/4.2.4/../../../../powerpc-gekko/lib\libc.a(lib_a-exit.o)
                0x80007aac                exit
 .text          0x80007aec      0x350 c:/devkitpro/devkitppc/bin/../lib/gcc/powerpc-gekko/4.2.4/../../../../powerpc-gekko/lib\libc.a(lib_a-fflush.o)
                0x80007dec                fflush
                0x80007aec                _fflush_r
 .text          0x80007e3c      0x4ac c:/devkitpro/devkitppc/bin/../lib/gcc/powerpc-gekko/4.2.4/../../../../powerpc-gekko/lib\libc.a(lib_a-findfp.o)
                0x80008028                __sinit
                0x80008148                __sfmoreglue
                0x80007e64                _cleanup
                0x80007e3c                _cleanup_r
                0x80008114                __fp_lock_all
                0x800080c4                __sfp_lock_acquire
                0x800081c0                __sfp
                0x80007ed0                __sinit_lock_release
                0x80007f24                __fp_unlock_all
                0x80007ef8                __sfp_lock_release
                0x80007fdc                __sinit_lock_acquire
 .text          0x800082e8      0x110 c:/devkitpro/devkitppc/bin/../lib/gcc/powerpc-gekko/4.2.4/../../../../powerpc-gekko/lib\libc.a(lib_a-fprintf.o)
                0x800082e8                fprintf
                0x8000837c                _fprintf_r
 .text          0x800083f8      0x3f8 c:/devkitpro/devkitppc/bin/../lib/gcc/powerpc-gekko/4.2.4/../../../../powerpc-gekko/lib\libc.a(lib_a-freer.o)
                0x80008514                _free_r
                0x800083f8                _malloc_trim_r
 .text          0x800087f0      0x20c c:/devkitpro/devkitppc/bin/../lib/gcc/powerpc-gekko/4.2.4/../../../../powerpc-gekko/lib\libc.a(lib_a-fwalk.o)
                0x800088fc                _fwalk
                0x800087f0                _fwalk_reent
 .text          0x800089fc      0x17c c:/devkitpro/devkitppc/bin/../lib/gcc/powerpc-gekko/4.2.4/../../../../powerpc-gekko/lib\libc.a(lib_a-fwrite.o)
                0x800089fc                _fwrite_r
                0x80008b50                fwrite
 .text          0x80008b78       0x34 c:/devkitpro/devkitppc/bin/../lib/gcc/powerpc-gekko/4.2.4/../../../../powerpc-gekko/lib\libc.a(lib_a-malign.o)
                0x80008b78                memalign
 .text          0x80008bac      0x1b0 c:/devkitpro/devkitppc/bin/../lib/gcc/powerpc-gekko/4.2.4/../../../../powerpc-gekko/lib\libc.a(lib_a-malignr.o)
                0x80008bac                _memalign_r
 .text          0x80008d5c       0x58 c:/devkitpro/devkitppc/bin/../lib/gcc/powerpc-gekko/4.2.4/../../../../powerpc-gekko/lib\libc.a(lib_a-malloc.o)
                0x80008d88                malloc
                0x80008d5c                free
 .text          0x80008db4      0x86c c:/devkitpro/devkitppc/bin/../lib/gcc/powerpc-gekko/4.2.4/../../../../powerpc-gekko/lib\libc.a(lib_a-mallocr.o)
                0x80008db4                _malloc_r
 .text          0x80009620       0x8c c:/devkitpro/devkitppc/bin/../lib/gcc/powerpc-gekko/4.2.4/../../../../powerpc-gekko/lib\libc.a(lib_a-memcmp.o)
                0x80009620                memcmp
 .text          0x800096ac       0xc8 c:/devkitpro/devkitppc/bin/../lib/gcc/powerpc-gekko/4.2.4/../../../../powerpc-gekko/lib\libc.a(lib_a-memcpy.o)
                0x800096ac                memcpy
 .text          0x80009774      0x104 c:/devkitpro/devkitppc/bin/../lib/gcc/powerpc-gekko/4.2.4/../../../../powerpc-gekko/lib\libc.a(lib_a-memmove.o)
                0x80009774                memmove
 .text          0x80009878       0xac c:/devkitpro/devkitppc/bin/../lib/gcc/powerpc-gekko/4.2.4/../../../../powerpc-gekko/lib\libc.a(lib_a-memset.o)
                0x80009878                memset
 .text          0x80009924      0x124 c:/devkitpro/devkitppc/bin/../lib/gcc/powerpc-gekko/4.2.4/../../../../powerpc-gekko/lib\libc.a(lib_a-printf.o)
                0x80009924                printf
                0x800099bc                _printf_r
 .text          0x80009a48       0xa8 c:/devkitpro/devkitppc/bin/../lib/gcc/powerpc-gekko/4.2.4/../../../../powerpc-gekko/lib\libc.a(lib_a-puts.o)
                0x80009a48                _puts_r
                0x80009ae0                puts
 .text          0x80009af0      0x248 c:/devkitpro/devkitppc/bin/../lib/gcc/powerpc-gekko/4.2.4/../../../../powerpc-gekko/lib\libc.a(lib_a-reent.o)
                0x80009bb0                cleanup_glue
                0x80009c00                _reclaim_reent
                0x80009af0                _wrapup_reent
 .text          0x80009d38      0x2cc c:/devkitpro/devkitppc/bin/../lib/gcc/powerpc-gekko/4.2.4/../../../../powerpc-gekko/lib\libc.a(lib_a-setvbuf.o)
                0x80009d38                setvbuf
 .text          0x8000a004      0x230 c:/devkitpro/devkitppc/bin/../lib/gcc/powerpc-gekko/4.2.4/../../../../powerpc-gekko/lib\libc.a(lib_a-snprintf.o)
                0x8000a004                snprintf
                0x8000a11c                _snprintf_r
 .text          0x8000a234      0x184 c:/devkitpro/devkitppc/bin/../lib/gcc/powerpc-gekko/4.2.4/../../../../powerpc-gekko/lib\libc.a(lib_a-stdio.o)
                0x8000a258                __sseek
                0x8000a354                __sread
                0x8000a234                __sclose
                0x8000a2c8                __swrite
 .text          0x8000a3b8       0xf0 c:/devkitpro/devkitppc/bin/../lib/gcc/powerpc-gekko/4.2.4/../../../../powerpc-gekko/lib\libc.a(lib_a-strchr.o)
                0x8000a3b8                strchr
 .text          0x8000a4a8       0xc0 c:/devkitpro/devkitppc/bin/../lib/gcc/powerpc-gekko/4.2.4/../../../../powerpc-gekko/lib\libc.a(lib_a-strcmp.o)
                0x8000a4a8                strcmp
 .text          0x8000a568       0x74 c:/devkitpro/devkitppc/bin/../lib/gcc/powerpc-gekko/4.2.4/../../../../powerpc-gekko/lib\libc.a(lib_a-strcpy.o)
                0x8000a568                strcpy
 .text          0x8000a5dc      0x454 c:/devkitpro/devkitppc/bin/../lib/gcc/powerpc-gekko/4.2.4/../../../../powerpc-gekko/lib\libc.a(lib_a-strerror.o)
                0x8000a5dc                strerror
 .text          0x8000aa30       0x64 c:/devkitpro/devkitppc/bin/../lib/gcc/powerpc-gekko/4.2.4/../../../../powerpc-gekko/lib\libc.a(lib_a-strlen.o)
                0x8000aa30                strlen
 .text          0x8000aa94      0x144 c:/devkitpro/devkitppc/bin/../lib/gcc/powerpc-gekko/4.2.4/../../../../powerpc-gekko/lib\libc.a(lib_a-strncmp.o)
                0x8000aa94                strncmp
 .text          0x8000abd8       0x44 c:/devkitpro/devkitppc/bin/../lib/gcc/powerpc-gekko/4.2.4/../../../../powerpc-gekko/lib\libc.a(lib_a-strnlen.o)
                0x8000abd8                strnlen
 .text          0x8000ac1c       0x30 c:/devkitpro/devkitppc/bin/../lib/gcc/powerpc-gekko/4.2.4/../../../../powerpc-gekko/lib\libc.a(lib_a-strtok.o)
                0x8000ac1c                strtok
 .text          0x8000ac4c       0xc4 c:/devkitpro/devkitppc/bin/../lib/gcc/powerpc-gekko/4.2.4/../../../../powerpc-gekko/lib\libc.a(lib_a-strtok_r.o)
                0x8000ad08                strtok_r
                0x8000ac4c                __strtok_r
 .text          0x8000ad10      0x200 c:/devkitpro/devkitppc/bin/../lib/gcc/powerpc-gekko/4.2.4/../../../../powerpc-gekko/lib\libc.a(lib_a-strtol.o)
                0x8000aef0                strtol
                0x8000ad10                _strtol_r
 .text          0x8000af10      0x1ec c:/devkitpro/devkitppc/bin/../lib/gcc/powerpc-gekko/4.2.4/../../../../powerpc-gekko/lib\libc.a(lib_a-strtoul.o)
                0x8000b0dc                strtoul
                0x8000af10                _strtoul_r
 .text          0x8000b0fc      0x288 c:/devkitpro/devkitppc/bin/../lib/gcc/powerpc-gekko/4.2.4/../../../../powerpc-gekko/lib\libc.a(lib_a-strtoull_r.o)
                0x8000b0fc                _strtoull_r
 .text          0x8000b384       0x3c c:/devkitpro/devkitppc/bin/../lib/gcc/powerpc-gekko/4.2.4/../../../../powerpc-gekko/lib\libc.a(lib_a-syswrite.o)
                0x8000b384                write
 .text          0x8000b3c0        0x8 c:/devkitpro/devkitppc/bin/../lib/gcc/powerpc-gekko/4.2.4/../../../../powerpc-gekko/lib\libc.a(lib_a-u_strerr.o)
                0x8000b3c0                _user_strerror
 .text          0x8000b3c8     0x2344 c:/devkitpro/devkitppc/bin/../lib/gcc/powerpc-gekko/4.2.4/../../../../powerpc-gekko/lib\libc.a(lib_a-vfprintf.o)
                0x8000b428                _vfprintf_r
                0x8000d6ec                vfprintf
 .text          0x8000d70c       0xa4 c:/devkitpro/devkitppc/bin/../lib/gcc/powerpc-gekko/4.2.4/../../../../powerpc-gekko/lib\libc.a(lib_a-wcrtomb.o)
                0x8000d70c                _wcrtomb_r
                0x8000d790                wcrtomb
 .text          0x8000d7b0      0x1d8 c:/devkitpro/devkitppc/bin/../lib/gcc/powerpc-gekko/4.2.4/../../../../powerpc-gekko/lib\libc.a(lib_a-wcsrtombs.o)
                0x8000d7b0                _wcsrtombs_r
                0x8000d960                wcsrtombs
 .text          0x8000d988      0x464 c:/devkitpro/devkitppc/bin/../lib/gcc/powerpc-gekko/4.2.4/../../../../powerpc-gekko/lib\libc.a(lib_a-wctomb_r.o)
                0x8000d988                _wctomb_r
 .text          0x8000ddec      0x178 c:/devkitpro/devkitppc/bin/../lib/gcc/powerpc-gekko/4.2.4/../../../../powerpc-gekko/lib\libc.a(lib_a-wsetup.o)
                0x8000ddec                __swsetup_r
 .text          0x8000df64      0x1ac c:/devkitpro/devkitppc/bin/../lib/gcc/powerpc-gekko/4.2.4/../../../../powerpc-gekko/lib\libc.a(lib_a-__call_atexit.o)
                0x8000df64                __call_exitprocs
 .text          0x8000e110     0x1390 c:/devkitpro/devkitppc/bin/../lib/gcc/powerpc-gekko/4.2.4/../../../../powerpc-gekko/lib\libc.a(lib_a-dtoa.o)
                0x8000e34c                _dtoa_r
 .text          0x8000f4a0      0x188 c:/devkitpro/devkitppc/bin/../lib/gcc/powerpc-gekko/4.2.4/../../../../powerpc-gekko/lib\libc.a(lib_a-fclose.o)
                0x8000f4a0                _fclose_r
                0x8000f618                fclose
 .text          0x8000f628      0x528 c:/devkitpro/devkitppc/bin/../lib/gcc/powerpc-gekko/4.2.4/../../../../powerpc-gekko/lib\libc.a(lib_a-fvwrite.o)
                0x8000f628                __sfvwrite_r
 .text          0x8000fb50      0x4c4 c:/devkitpro/devkitppc/bin/../lib/gcc/powerpc-gekko/4.2.4/../../../../powerpc-gekko/lib\libc.a(lib_a-locale.o)
                0x8000fb74                _setlocale_r
                0x8000fb50                __locale_charset
                0x8000fb5c                _localeconv_r
                0x8000fffc                setlocale
                0x8000fb68                localeconv
 .text          0x80010014      0x1bc c:/devkitpro/devkitppc/bin/../lib/gcc/powerpc-gekko/4.2.4/../../../../powerpc-gekko/lib\libc.a(lib_a-makebuf.o)
                0x80010014                __smakebuf_r
 .text          0x800101d0      0x9a8 c:/devkitpro/devkitppc/bin/../lib/gcc/powerpc-gekko/4.2.4/../../../../powerpc-gekko/lib\libc.a(lib_a-mbtowc_r.o)
                0x800101d0                _mbtowc_r
 .text          0x80010b78       0xf4 c:/devkitpro/devkitppc/bin/../lib/gcc/powerpc-gekko/4.2.4/../../../../powerpc-gekko/lib\libc.a(lib_a-memchr.o)
                0x80010b78                memchr
 .text          0x80010c6c     0x1114 c:/devkitpro/devkitppc/bin/../lib/gcc/powerpc-gekko/4.2.4/../../../../powerpc-gekko/lib\libc.a(lib_a-mprec.o)
                0x800110d4                _mprec_log10
                0x80011178                __any_on
                0x80011218                _Balloc
                0x80011010                __ratio
                0x800119d8                __i2b
                0x80010ec0                __b2d
                0x80011c58                __s2b
                0x80010dc0                __mcmp
                0x80010c90                __hi0bits
                0x80011b2c                __pow5mult
                0x8001163c                __lshift
                0x800117a4                __multiply
                0x800112e8                __d2b
                0x80011110                __copybits
                0x80010e20                __ulp
                0x80011490                __mdiff
                0x80010cfc                __lo0bits
                0x80011a14                __multadd
                0x80010c6c                _Bfree
 .text          0x80011d80      0x668 c:/devkitpro/devkitppc/bin/../lib/gcc/powerpc-gekko/4.2.4/../../../../powerpc-gekko/lib\libc.a(lib_a-reallocr.o)
                0x80011d80                _realloc_r
 .text          0x800123e8       0x44 c:/devkitpro/devkitppc/bin/../lib/gcc/powerpc-gekko/4.2.4/../../../../powerpc-gekko/lib\libc.a(lib_a-s_isinfd.o)
                0x800123e8                __isinfd
 .text          0x8001242c       0x38 c:/devkitpro/devkitppc/bin/../lib/gcc/powerpc-gekko/4.2.4/../../../../powerpc-gekko/lib\libc.a(lib_a-s_isnand.o)
                0x8001242c                __isnand
 .text          0x80012464       0xa0 c:/devkitpro/devkitppc/bin/../lib/gcc/powerpc-gekko/4.2.4/../../../../powerpc-gekko/lib\libsysbase.a(close.o)
                0x80012464                _close_r
 .text          0x80012504       0xc8 c:/devkitpro/devkitppc/bin/../lib/gcc/powerpc-gekko/4.2.4/../../../../powerpc-gekko/lib\libsysbase.a(fstat.o)
                0x80012504                _fstat_r
 .text          0x800125cc        0x8 c:/devkitpro/devkitppc/bin/../lib/gcc/powerpc-gekko/4.2.4/../../../../powerpc-gekko/lib\libsysbase.a(isatty.o)
                0x800125cc                isatty
 .text          0x800125d4       0xe8 c:/devkitpro/devkitppc/bin/../lib/gcc/powerpc-gekko/4.2.4/../../../../powerpc-gekko/lib\libsysbase.a(lseek.o)
                0x800125d4                _lseek_r
 .text          0x800126bc       0xcc c:/devkitpro/devkitppc/bin/../lib/gcc/powerpc-gekko/4.2.4/../../../../powerpc-gekko/lib\libsysbase.a(read.o)
                0x800126bc                _read_r
 .text          0x80012788       0x50 c:/devkitpro/devkitppc/bin/../lib/gcc/powerpc-gekko/4.2.4/../../../../powerpc-gekko/lib\libsysbase.a(sbrk.o)
                0x80012788                _sbrk_r
 .text          0x800127d8       0xcc c:/devkitpro/devkitppc/bin/../lib/gcc/powerpc-gekko/4.2.4/../../../../powerpc-gekko/lib\libsysbase.a(write.o)
                0x800127d8                _write_r
 .text          0x800128a4       0x6c c:/devkitpro/devkitppc/bin/../lib/gcc/powerpc-gekko/4.2.4/../../../../powerpc-gekko/lib\libsysbase.a(flock.o)
                0x800128c8                __flockfile
                0x800128a4                __funlockfile
 .text          0x80012910      0x120 c:/devkitpro/devkitppc/bin/../lib/gcc/powerpc-gekko/4.2.4/../../../../powerpc-gekko/lib\libsysbase.a(handle_manager.o)
                0x800129d4                __release_handle
                0x8001293c                __alloc_handle
                0x80012910                __get_handle
 .text          0x80012a30      0x450 c:/devkitpro/devkitppc/bin/../lib/gcc/powerpc-gekko/4.2.4\libgcc.a(_umoddi3.o)
                0x80012a30                __umoddi3
 .text          0x80012e80       0x6c c:/devkitpro/devkitppc/bin/../lib/gcc/powerpc-gekko/4.2.4/crtend.o
 *(.text.*)
 .text.main     0x80012eec      0x124 helloworld.o
                0x80012eec                main
 .text.irclisten
                0x80013010      0x3f4 irc.o
                0x80013010                irclisten
 .text.ircconnect
                0x80013404      0x360 irc.o
                0x80013404                ircconnect
 .text.initialise_network
                0x80013764      0x138 irc.o
                0x80013764                initialise_network
 .text.check_gamecube
                0x8001389c       0x70 pad.o
                0x8001389c                check_gamecube
 .text.check_wiimote
                0x8001390c       0x50 pad.o
                0x8001390c                check_wiimote
 .text.check_reset_synchronous
                0x8001395c       0x58 reset.o
                0x8001395c                check_reset_synchronous
 .text.tcpconnect
                0x800139b4      0x258 tcpflood.o
                0x800139b4                tcpconnect
 .text.tcpflood
                0x80013c0c      0x104 tcpflood.o
                0x80013c0c                tcpflood
 .text.__wpad_assign_slot
                0x80013d10      0x24c c:/devkitPro/libogc/lib/wii\libwiiuse.a(wpad.o)
                0x80013d10                __wpad_assign_slot
 .text.__wpad_disconnectCB
                0x80013f5c      0x100 c:/devkitPro/libogc/lib/wii\libwiiuse.a(wpad.o)
                0x80013f5c                __wpad_disconnectCB
 .text.WPAD_ButtonsDown
                0x8001405c       0x28 c:/devkitPro/libogc/lib/wii\libwiiuse.a(wpad.o)
                0x8001405c                WPAD_ButtonsDown
 .text.__wpad_disconnect
                0x80014084       0x58 c:/devkitPro/libogc/lib/wii\libwiiuse.a(wpad.o)
 .text.WPAD_Shutdown
                0x800140dc      0x100 c:/devkitPro/libogc/lib/wii\libwiiuse.a(wpad.o)
                0x800140dc                WPAD_Shutdown
 .text.__wpad_onreset
                0x800141dc       0x2c c:/devkitPro/libogc/lib/wii\libwiiuse.a(wpad.o)
 .text.__wpad_timeouthandler
                0x80014208       0xb8 c:/devkitPro/libogc/lib/wii\libwiiuse.a(wpad.o)
 .text.__wpad_def_powcb
                0x800142c0       0x20 c:/devkitPro/libogc/lib/wii\libwiiuse.a(wpad.o)
 .text.__wpad_setfmt
                0x800142e0      0x110 c:/devkitPro/libogc/lib/wii\libwiiuse.a(wpad.o)
 .text.WPAD_ReadEvent
                0x800143f0      0x5a4 c:/devkitPro/libogc/lib/wii\libwiiuse.a(wpad.o)
                0x800143f0                WPAD_ReadEvent
 .text.WPAD_ReadPending
                0x80014994      0x16c c:/devkitPro/libogc/lib/wii\libwiiuse.a(wpad.o)
                0x80014994                WPAD_ReadPending
 .text.WPAD_ScanPads
                0x80014b00        0xc c:/devkitPro/libogc/lib/wii\libwiiuse.a(wpad.o)
                0x80014b00                WPAD_ScanPads
 .text.WPAD_Init
                0x80014b0c      0x20c c:/devkitPro/libogc/lib/wii\libwiiuse.a(wpad.o)
                0x80014b0c                WPAD_Init
 .text.__initcore_finished
                0x80014d18       0x40 c:/devkitPro/libogc/lib/wii\libwiiuse.a(wpad.o)
 .text.__readlinkkey_finished
                0x80014d58       0x38 c:/devkitPro/libogc/lib/wii\libwiiuse.a(wpad.o)
 .text.__wpad_patch_finished
                0x80014d90       0x2c c:/devkitPro/libogc/lib/wii\libwiiuse.a(wpad.o)
 .text.__wpad_init_finished
                0x80014dbc      0x1d4 c:/devkitPro/libogc/lib/wii\libwiiuse.a(wpad.o)
 .text.__wpad_eventCB
                0x80014f90      0x998 c:/devkitPro/libogc/lib/wii\libwiiuse.a(wpad.o)
 .text.calculate_gforce
                0x80015928       0xfc c:/devkitPro/libogc/lib/wii\libwiiuse.a(dynamics.o)
                0x80015928                calculate_gforce
 .text.calc_balanceboard_state
                0x80015a24      0x380 c:/devkitPro/libogc/lib/wii\libwiiuse.a(dynamics.o)
                0x80015a24                calc_balanceboard_state
 .text.apply_smoothing
                0x80015da4      0x184 c:/devkitPro/libogc/lib/wii\libwiiuse.a(dynamics.o)
                0x80015da4                apply_smoothing
 .text.calc_joystick_state
                0x80015f28      0x274 c:/devkitPro/libogc/lib/wii\libwiiuse.a(dynamics.o)
                0x80015f28                calc_joystick_state
 .text.calculate_orientation
                0x8001619c      0x2ec c:/devkitPro/libogc/lib/wii\libwiiuse.a(dynamics.o)
                0x8001619c                calculate_orientation
 .text.wiiuse_io_write
                0x80016488       0x44 c:/devkitPro/libogc/lib/wii\libwiiuse.a(io_wii.o)
                0x80016488                wiiuse_io_write
 .text.__wiiuse_disconnected
                0x800164cc       0xb0 c:/devkitPro/libogc/lib/wii\libwiiuse.a(io_wii.o)
 .text.__wiiuse_sent
                0x8001657c       0xc4 c:/devkitPro/libogc/lib/wii\libwiiuse.a(io_wii.o)
 .text.wiiuse_init_cmd_queue
                0x80016640       0x4c c:/devkitPro/libogc/lib/wii\libwiiuse.a(io_wii.o)
                0x80016640                wiiuse_init_cmd_queue
 .text.wiiuse_disconnect
                0x8001668c       0x40 c:/devkitPro/libogc/lib/wii\libwiiuse.a(io_wii.o)
                0x8001668c                wiiuse_disconnect
 .text.wiiuse_register
                0x800166cc       0xe4 c:/devkitPro/libogc/lib/wii\libwiiuse.a(io_wii.o)
                0x800166cc                wiiuse_register
 .text.__wiiuse_connected
                0x800167b0       0x9c c:/devkitPro/libogc/lib/wii\libwiiuse.a(io_wii.o)
 .text.__wiiuse_receive
                0x8001684c       0xc8 c:/devkitPro/libogc/lib/wii\libwiiuse.a(io_wii.o)
 .text.__wiiuse_sensorbar_enable
                0x80016914       0x50 c:/devkitPro/libogc/lib/wii\libwiiuse.a(io_wii.o)
                0x80016914                __wiiuse_sensorbar_enable
 .text.get_ir_sens
                0x80016964       0xec c:/devkitPro/libogc/lib/wii\libwiiuse.a(ir.o)
 .text.wiiuse_set_ir_position
                0x80016a50       0x80 c:/devkitPro/libogc/lib/wii\libwiiuse.a(ir.o)
                0x80016a50                wiiuse_set_ir_position
 .text.wiiuse_set_aspect_ratio
                0x80016ad0       0x44 c:/devkitPro/libogc/lib/wii\libwiiuse.a(ir.o)
                0x80016ad0                wiiuse_set_aspect_ratio
 .text.calculate_basic_ir
                0x80016b14       0xf4 c:/devkitPro/libogc/lib/wii\libwiiuse.a(ir.o)
                0x80016b14                calculate_basic_ir
 .text.calculate_extended_ir
                0x80016c08       0x70 c:/devkitPro/libogc/lib/wii\libwiiuse.a(ir.o)
                0x80016c08                calculate_extended_ir
 .text.calc_yaw
                0x80016c78       0x54 c:/devkitPro/libogc/lib/wii\libwiiuse.a(ir.o)
                0x80016c78                calc_yaw
 .text.apply_ir_smoothing
                0x80016ccc       0xf4 c:/devkitPro/libogc/lib/wii\libwiiuse.a(ir.o)
                0x80016ccc                apply_ir_smoothing
 .text.rotate_dots
                0x80016dc0      0x120 c:/devkitPro/libogc/lib/wii\libwiiuse.a(ir.o)
 .text.find_sensorbar
                0x80016ee0      0x970 c:/devkitPro/libogc/lib/wii\libwiiuse.a(ir.o)
                0x80016ee0                find_sensorbar
 .text.interpret_ir_data
                0x80017850      0x33c c:/devkitPro/libogc/lib/wii\libwiiuse.a(ir.o)
                0x80017850                interpret_ir_data
 .text.wiiuse_set_ir_sensitivity
                0x80017b8c      0x118 c:/devkitPro/libogc/lib/wii\libwiiuse.a(ir.o)
                0x80017b8c                wiiuse_set_ir_sensitivity
 .text.wiiuse_set_ir_mode
                0x80017ca4       0x6c c:/devkitPro/libogc/lib/wii\libwiiuse.a(ir.o)
                0x80017ca4                wiiuse_set_ir_mode
 .text.wiiuse_set_ir
                0x80017d10      0x21c c:/devkitPro/libogc/lib/wii\libwiiuse.a(ir.o)
                0x80017d10                wiiuse_set_ir
 .text.wiiuse_set_flags
                0x80017f2c       0x20 c:/devkitPro/libogc/lib/wii\libwiiuse.a(wiiuse.o)
                0x80017f2c                wiiuse_set_flags
 .text.wiiuse_send_next_command
                0x80017f4c       0x6c c:/devkitPro/libogc/lib/wii\libwiiuse.a(wiiuse.o)
                0x80017f4c                wiiuse_send_next_command
 .text.wiiuse_write_data
                0x80017fb8      0x184 c:/devkitPro/libogc/lib/wii\libwiiuse.a(wiiuse.o)
                0x80017fb8                wiiuse_write_data
 .text.wiiuse_init
                0x8001813c      0x164 c:/devkitPro/libogc/lib/wii\libwiiuse.a(wiiuse.o)
                0x8001813c                wiiuse_init
 .text.wiiuse_sendcmd
                0x800182a0      0x10c c:/devkitPro/libogc/lib/wii\libwiiuse.a(wiiuse.o)
                0x800182a0                wiiuse_sendcmd
 .text.wiiuse_status
                0x800183ac       0x5c c:/devkitPro/libogc/lib/wii\libwiiuse.a(wiiuse.o)
                0x800183ac                wiiuse_status
 .text.wiiuse_motion_sensing
                0x80018408       0x54 c:/devkitPro/libogc/lib/wii\libwiiuse.a(wiiuse.o)
                0x80018408                wiiuse_motion_sensing
 .text.wiiuse_set_report_type
                0x8001845c      0x100 c:/devkitPro/libogc/lib/wii\libwiiuse.a(wiiuse.o)
                0x8001845c                wiiuse_set_report_type
 .text.wiiuse_set_leds
                0x8001855c       0x60 c:/devkitPro/libogc/lib/wii\libwiiuse.a(wiiuse.o)
                0x8001855c                wiiuse_set_leds
 .text.wiiuse_read_data
                0x800185bc      0x144 c:/devkitPro/libogc/lib/wii\libwiiuse.a(wiiuse.o)
                0x800185bc                wiiuse_read_data
 .text.wiiuse_pressed_buttons
                0x80018700       0x2c c:/devkitPro/libogc/lib/wii\libwiiuse.a(events.o)
                0x80018700                wiiuse_pressed_buttons
 .text.handle_expansion
                0x8001872c       0x94 c:/devkitPro/libogc/lib/wii\libwiiuse.a(events.o)
 .text.parse_event
                0x800187c0      0x518 c:/devkitPro/libogc/lib/wii\libwiiuse.a(events.o)
                0x800187c0                parse_event
 .text.guitar_hero_3_event
                0x80018cd8       0x50 c:/devkitPro/libogc/lib/wii\libwiiuse.a(guitar_hero_3.o)
                0x80018cd8                guitar_hero_3_event
 .text.guitar_hero_3_disconnected
                0x80018d28       0x28 c:/devkitPro/libogc/lib/wii\libwiiuse.a(guitar_hero_3.o)
                0x80018d28                guitar_hero_3_disconnected
 .text.guitar_hero_3_handshake
                0x80018d50       0xb4 c:/devkitPro/libogc/lib/wii\libwiiuse.a(guitar_hero_3.o)
                0x80018d50                guitar_hero_3_handshake
 .text.wiiuse_disable_expansion
                0x80018e04      0x170 c:/devkitPro/libogc/lib/wii\libwiiuse.a(io.o)
                0x80018e04                wiiuse_disable_expansion
 .text.wiiuse_handshake_expansion
                0x80018f74      0x238 c:/devkitPro/libogc/lib/wii\libwiiuse.a(io.o)
                0x80018f74                wiiuse_handshake_expansion
 .text.wiiuse_handshake_expansion_start
                0x800191ac       0x24 c:/devkitPro/libogc/lib/wii\libwiiuse.a(io.o)
                0x800191ac                wiiuse_handshake_expansion_start
 .text.wiiuse_handshake
                0x800191d0      0x164 c:/devkitPro/libogc/lib/wii\libwiiuse.a(io.o)
                0x800191d0                wiiuse_handshake
 .text.nunchuk_event
                0x80019334       0x88 c:/devkitPro/libogc/lib/wii\libwiiuse.a(nunchuk.o)
                0x80019334                nunchuk_event
 .text.nunchuk_disconnected
                0x800193bc       0x28 c:/devkitPro/libogc/lib/wii\libwiiuse.a(nunchuk.o)
                0x800193bc                nunchuk_disconnected
 .text.nunchuk_handshake
                0x800193e4      0x198 c:/devkitPro/libogc/lib/wii\libwiiuse.a(nunchuk.o)
                0x800193e4                nunchuk_handshake
 .text.wii_board_event
                0x8001957c       0x54 c:/devkitPro/libogc/lib/wii\libwiiuse.a(wiiboard.o)
                0x8001957c                wii_board_event
 .text.wii_board_disconnected
                0x800195d0       0x28 c:/devkitPro/libogc/lib/wii\libwiiuse.a(wiiboard.o)
                0x800195d0                wii_board_disconnected
 .text.wii_board_handshake
                0x800195f8      0x174 c:/devkitPro/libogc/lib/wii\libwiiuse.a(wiiboard.o)
                0x800195f8                wii_board_handshake
 .text.classic_ctrl_event
                0x8001976c       0xa4 c:/devkitPro/libogc/lib/wii\libwiiuse.a(classic.o)
                0x8001976c                classic_ctrl_event
 .text.classic_ctrl_disconnected
                0x80019810       0x28 c:/devkitPro/libogc/lib/wii\libwiiuse.a(classic.o)
                0x80019810                classic_ctrl_disconnected
 .text.classic_ctrl_handshake
                0x80019838      0x128 c:/devkitPro/libogc/lib/wii\libwiiuse.a(classic.o)
                0x80019838                classic_ctrl_handshake
 .text.bte_arg  0x80019960       0x38 c:/devkitPro/libogc/lib/wii\libbte.a(bte.o)
                0x80019960                bte_arg
 .text.bte_received
                0x80019998       0x38 c:/devkitPro/libogc/lib/wii\libbte.a(bte.o)
                0x80019998                bte_received
 .text.bte_disconnected
                0x800199d0       0x38 c:/devkitPro/libogc/lib/wii\libbte.a(bte.o)
                0x800199d0                bte_disconnected
 .text.acl_wlp_completed
                0x80019a08        0x8 c:/devkitPro/libogc/lib/wii\libbte.a(bte.o)
                0x80019a08                acl_wlp_completed
 .text.l2cap_accepted
                0x80019a10      0x10c c:/devkitPro/libogc/lib/wii\libbte.a(bte.o)
                0x80019a10                l2cap_accepted
 .text.l2cap_disconnected_ind
                0x80019b1c      0x174 c:/devkitPro/libogc/lib/wii\libbte.a(bte.o)
                0x80019b1c                l2cap_disconnected_ind
 .text.__bte_send_pending_request
                0x80019c90       0xdc c:/devkitPro/libogc/lib/wii\libbte.a(bte.o)
 .text.bte_process_input
                0x80019d6c      0x130 c:/devkitPro/libogc/lib/wii\libbte.a(bte.o)
 .text.__bte_send_request
                0x80019e9c       0xa4 c:/devkitPro/libogc/lib/wii\libbte.a(bte.o)
 .text.bte_disconnect
                0x80019f40       0xb4 c:/devkitPro/libogc/lib/wii\libbte.a(bte.o)
                0x80019f40                bte_disconnect
 .text.acl_conn_complete
                0x80019ff4       0x2c c:/devkitPro/libogc/lib/wii\libbte.a(bte.o)
                0x80019ff4                acl_conn_complete
 .text.bte_sendmessageasync
                0x8001a020      0x138 c:/devkitPro/libogc/lib/wii\libbte.a(bte.o)
                0x8001a020                bte_sendmessageasync
 .text.bte_registerdeviceasync
                0x8001a158      0x1c0 c:/devkitPro/libogc/lib/wii\libbte.a(bte.o)
                0x8001a158                bte_registerdeviceasync
 .text.bte_new  0x8001a318       0x60 c:/devkitPro/libogc/lib/wii\libbte.a(bte.o)
                0x8001a318                bte_new
 .text.BTE_SetDisconnectCallback
                0x8001a378       0x20 c:/devkitPro/libogc/lib/wii\libbte.a(bte.o)
                0x8001a378                BTE_SetDisconnectCallback
 .text.BTE_InitSub
                0x8001a398       0x94 c:/devkitPro/libogc/lib/wii\libbte.a(bte.o)
                0x8001a398                BTE_InitSub
 .text.BTE_ApplyPatch
                0x8001a42c       0xa8 c:/devkitPro/libogc/lib/wii\libbte.a(bte.o)
                0x8001a42c                BTE_ApplyPatch
 .text.BTE_InitCore
                0x8001a4d4       0x90 c:/devkitPro/libogc/lib/wii\libbte.a(bte.o)
                0x8001a4d4                BTE_InitCore
 .text.BTE_ReadStoredLinkKey
                0x8001a564       0x94 c:/devkitPro/libogc/lib/wii\libbte.a(bte.o)
                0x8001a564                BTE_ReadStoredLinkKey
 .text.BTE_Shutdown
                0x8001a5f8      0x114 c:/devkitPro/libogc/lib/wii\libbte.a(bte.o)
                0x8001a5f8                BTE_Shutdown
 .text.__bte_shutdown_finished
                0x8001a70c      0x118 c:/devkitPro/libogc/lib/wii\libbte.a(bte.o)
 .text.BTE_Init
                0x8001a824      0x134 c:/devkitPro/libogc/lib/wii\libbte.a(bte.o)
                0x8001a824                BTE_Init
 .text.bt_alarmhandler
                0x8001a958       0x60 c:/devkitPro/libogc/lib/wii\libbte.a(bte.o)
 .text.l2cap_disconnect_cfm
                0x8001a9b8      0x1ac c:/devkitPro/libogc/lib/wii\libbte.a(bte.o)
                0x8001a9b8                l2cap_disconnect_cfm
 .text.bte_hci_initsub_complete
                0x8001ab64      0x230 c:/devkitPro/libogc/lib/wii\libbte.a(bte.o)
                0x8001ab64                bte_hci_initsub_complete
 .text.bte_hci_patch_complete
                0x8001ad94      0x2b8 c:/devkitPro/libogc/lib/wii\libbte.a(bte.o)
                0x8001ad94                bte_hci_patch_complete
 .text.bte_hci_apply_patch_complete
                0x8001b04c      0x15c c:/devkitPro/libogc/lib/wii\libbte.a(bte.o)
                0x8001b04c                bte_hci_apply_patch_complete
 .text.bte_hci_initcore_complete
                0x8001b1a8      0x208 c:/devkitPro/libogc/lib/wii\libbte.a(bte.o)
                0x8001b1a8                bte_hci_initcore_complete
 .text.bte_hci_initcore_complete2
                0x8001b3b0      0x1e4 c:/devkitPro/libogc/lib/wii\libbte.a(bte.o)
                0x8001b3b0                bte_hci_initcore_complete2
 .text.bte_read_stored_link_key_complete
                0x8001b594      0x264 c:/devkitPro/libogc/lib/wii\libbte.a(bte.o)
                0x8001b594                bte_read_stored_link_key_complete
 .text.hci_get_link
                0x8001b7f8       0x88 c:/devkitPro/libogc/lib/wii\libbte.a(hci.o)
                0x8001b7f8                hci_get_link
 .text.hci_arg  0x8001b880       0x10 c:/devkitPro/libogc/lib/wii\libbte.a(hci.o)
                0x8001b880                hci_arg
 .text.hci_cmd_complete
                0x8001b890       0x10 c:/devkitPro/libogc/lib/wii\libbte.a(hci.o)
                0x8001b890                hci_cmd_complete
 .text.hci_connection_complete
                0x8001b8a0       0x10 c:/devkitPro/libogc/lib/wii\libbte.a(hci.o)
                0x8001b8a0                hci_connection_complete
 .text.hci_wlp_complete
                0x8001b8b0       0x10 c:/devkitPro/libogc/lib/wii\libbte.a(hci.o)
                0x8001b8b0                hci_wlp_complete
 .text.hci_cmd_ass
                0x8001b8c0       0x4c c:/devkitPro/libogc/lib/wii\libbte.a(hci.o)
                0x8001b8c0                hci_cmd_ass
 .text.lp_pdu_maxsize
                0x8001b90c       0x10 c:/devkitPro/libogc/lib/wii\libbte.a(hci.o)
                0x8001b90c                lp_pdu_maxsize
 .text.hci_host_num_comp_packets
                0x8001b91c       0xcc c:/devkitPro/libogc/lib/wii\libbte.a(hci.o)
                0x8001b91c                hci_host_num_comp_packets
 .text.hci_write_cod
                0x8001b9e8       0x8c c:/devkitPro/libogc/lib/wii\libbte.a(hci.o)
                0x8001b9e8                hci_write_cod
 .text.hci_disconnect
                0x8001ba74       0xb8 c:/devkitPro/libogc/lib/wii\libbte.a(hci.o)
                0x8001ba74                hci_disconnect
 .text.hci_pin_code_request_neg_reply
                0x8001bb2c       0x8c c:/devkitPro/libogc/lib/wii\libbte.a(hci.o)
                0x8001bb2c                hci_pin_code_request_neg_reply
 .text.hci_vendor_specific_command
                0x8001bbb8       0xb8 c:/devkitPro/libogc/lib/wii\libbte.a(hci.o)
                0x8001bbb8                hci_vendor_specific_command
 .text.hci_write_inquiry_scan_type
                0x8001bc70       0x80 c:/devkitPro/libogc/lib/wii\libbte.a(hci.o)
                0x8001bc70                hci_write_inquiry_scan_type
 .text.hci_write_page_scan_type
                0x8001bcf0       0x80 c:/devkitPro/libogc/lib/wii\libbte.a(hci.o)
                0x8001bcf0                hci_write_page_scan_type
 .text.hci_write_inquiry_mode
                0x8001bd70       0x80 c:/devkitPro/libogc/lib/wii\libbte.a(hci.o)
                0x8001bd70                hci_write_inquiry_mode
 .text.hci_write_pin_type
                0x8001bdf0       0x80 c:/devkitPro/libogc/lib/wii\libbte.a(hci.o)
                0x8001bdf0                hci_write_pin_type
 .text.hci_write_local_name
                0x8001be70       0x9c c:/devkitPro/libogc/lib/wii\libbte.a(hci.o)
                0x8001be70                hci_write_local_name
 .text.hci_accecpt_conn_request
                0x8001bf0c       0xa0 c:/devkitPro/libogc/lib/wii\libbte.a(hci.o)
                0x8001bf0c                hci_accecpt_conn_request
 .text.hci_write_scan_enable
                0x8001bfac       0x80 c:/devkitPro/libogc/lib/wii\libbte.a(hci.o)
                0x8001bfac                hci_write_scan_enable
 .text.hci_read_local_features
                0x8001c02c       0x6c c:/devkitPro/libogc/lib/wii\libbte.a(hci.o)
                0x8001c02c                hci_read_local_features
 .text.hci_read_local_version
                0x8001c098       0x6c c:/devkitPro/libogc/lib/wii\libbte.a(hci.o)
                0x8001c098                hci_read_local_version
 .text.hci_read_bd_addr
                0x8001c104       0x6c c:/devkitPro/libogc/lib/wii\libbte.a(hci.o)
                0x8001c104                hci_read_bd_addr
 .text.hci_read_buffer_size
                0x8001c170       0x6c c:/devkitPro/libogc/lib/wii\libbte.a(hci.o)
                0x8001c170                hci_read_buffer_size
 .text.hci_reset
                0x8001c1dc       0x6c c:/devkitPro/libogc/lib/wii\libbte.a(hci.o)
                0x8001c1dc                hci_reset
 .text.lp_acl_write
                0x8001c248      0x180 c:/devkitPro/libogc/lib/wii\libbte.a(hci.o)
                0x8001c248                lp_acl_write
 .text.hci_new  0x8001c3c8       0x54 c:/devkitPro/libogc/lib/wii\libbte.a(hci.o)
                0x8001c3c8                hci_new
 .text.hci_read_stored_link_key
                0x8001c41c       0xd4 c:/devkitPro/libogc/lib/wii\libbte.a(hci.o)
                0x8001c41c                hci_read_stored_link_key
 .text.hci_close
                0x8001c4f0       0xec c:/devkitPro/libogc/lib/wii\libbte.a(hci.o)
                0x8001c4f0                hci_close
 .text.hci_init
                0x8001c5dc       0xa0 c:/devkitPro/libogc/lib/wii\libbte.a(hci.o)
                0x8001c5dc                hci_init
 .text.hci_reset_all
                0x8001c67c       0xd4 c:/devkitPro/libogc/lib/wii\libbte.a(hci.o)
                0x8001c67c                hci_reset_all
 .text.hci_write_page_timeout
                0x8001c750       0x90 c:/devkitPro/libogc/lib/wii\libbte.a(hci.o)
                0x8001c750                hci_write_page_timeout
 .text.hci_acldata_handler
                0x8001c7e0      0x138 c:/devkitPro/libogc/lib/wii\libbte.a(hci.o)
                0x8001c7e0                hci_acldata_handler
 .text.hci_event_handler
                0x8001c918      0xb98 c:/devkitPro/libogc/lib/wii\libbte.a(hci.o)
                0x8001c918                hci_event_handler
 .text.lp_write_flush_timeout
                0x8001d4b0       0xc0 c:/devkitPro/libogc/lib/wii\libbte.a(hci.o)
                0x8001d4b0                lp_write_flush_timeout
 .text.hci_host_buffer_size
                0x8001d570       0xd0 c:/devkitPro/libogc/lib/wii\libbte.a(hci.o)
                0x8001d570                hci_host_buffer_size
 .text.hci_write_link_policy_settings
                0x8001d640       0xc0 c:/devkitPro/libogc/lib/wii\libbte.a(hci.o)
                0x8001d640                hci_write_link_policy_settings
 .text.l2cap_cid_alloc
                0x8001d700       0x60 c:/devkitPro/libogc/lib/wii\libbte.a(l2cap.o)
 .text.lp_connect_ind
                0x8001d760        0x4 c:/devkitPro/libogc/lib/wii\libbte.a(l2cap.o)
                0x8001d760                lp_connect_ind
 .text.l2cap_disconnect_bb
                0x8001d764       0x14 c:/devkitPro/libogc/lib/wii\libbte.a(l2cap.o)
                0x8001d764                l2cap_disconnect_bb
 .text.l2cap_next_sigid
                0x8001d778       0x2c c:/devkitPro/libogc/lib/wii\libbte.a(l2cap.o)
                0x8001d778                l2cap_next_sigid
 .text.l2cap_arg
                0x8001d7a4        0x8 c:/devkitPro/libogc/lib/wii\libbte.a(l2cap.o)
                0x8001d7a4                l2cap_arg
 .text.l2cap_disconnect_ind
                0x8001d7ac        0x8 c:/devkitPro/libogc/lib/wii\libbte.a(l2cap.o)
                0x8001d7ac                l2cap_disconnect_ind
 .text.l2cap_recv
                0x8001d7b4        0x8 c:/devkitPro/libogc/lib/wii\libbte.a(l2cap.o)
                0x8001d7b4                l2cap_recv
 .text.l2cap_connect_ind
                0x8001d7bc      0x108 c:/devkitPro/libogc/lib/wii\libbte.a(l2cap.o)
                0x8001d7bc                l2cap_connect_ind
 .text.l2cap_close
                0x8001d8c4      0x1e8 c:/devkitPro/libogc/lib/wii\libbte.a(l2cap.o)
                0x8001d8c4                l2cap_close
 .text.lp_disconnect_ind
                0x8001daac      0x114 c:/devkitPro/libogc/lib/wii\libbte.a(l2cap.o)
                0x8001daac                lp_disconnect_ind
 .text.l2cap_new
                0x8001dbc0       0x80 c:/devkitPro/libogc/lib/wii\libbte.a(l2cap.o)
                0x8001dbc0                l2cap_new
 .text.l2cap_write
                0x8001dc40      0x1a4 c:/devkitPro/libogc/lib/wii\libbte.a(l2cap.o)
                0x8001dc40                l2cap_write
 .text.l2cap_rexmit_signal
                0x8001dde4       0x2c c:/devkitPro/libogc/lib/wii\libbte.a(l2cap.o)
                0x8001dde4                l2cap_rexmit_signal
 .text.l2cap_signal
                0x8001de10      0x1e0 c:/devkitPro/libogc/lib/wii\libbte.a(l2cap.o)
                0x8001de10                l2cap_signal
 .text.l2ca_disconnect_req
                0x8001dff0       0xc0 c:/devkitPro/libogc/lib/wii\libbte.a(l2cap.o)
                0x8001dff0                l2ca_disconnect_req
 .text.l2cap_tmr
                0x8001e0b0      0x244 c:/devkitPro/libogc/lib/wii\libbte.a(l2cap.o)
                0x8001e0b0                l2cap_tmr
 .text.l2ca_config_req
                0x8001e2f4      0x154 c:/devkitPro/libogc/lib/wii\libbte.a(l2cap.o)
                0x8001e2f4                l2ca_config_req
 .text.l2cap_process_sig
                0x8001e448     0x1238 c:/devkitPro/libogc/lib/wii\libbte.a(l2cap.o)
                0x8001e448                l2cap_process_sig
 .text.l2cap_init
                0x8001f680       0x88 c:/devkitPro/libogc/lib/wii\libbte.a(l2cap.o)
                0x8001f680                l2cap_init
 .text.l2cap_reset_all
                0x8001f708      0x154 c:/devkitPro/libogc/lib/wii\libbte.a(l2cap.o)
                0x8001f708                l2cap_reset_all
 .text.lp_connect_cfm
                0x8001f85c      0x14c c:/devkitPro/libogc/lib/wii\libbte.a(l2cap.o)
                0x8001f85c                lp_connect_cfm
 .text.l2ca_datawrite
                0x8001f9a8      0x114 c:/devkitPro/libogc/lib/wii\libbte.a(l2cap.o)
                0x8001f9a8                l2ca_datawrite
 .text.l2cap_input
                0x8001fabc      0x5d0 c:/devkitPro/libogc/lib/wii\libbte.a(l2cap.o)
                0x8001fabc                l2cap_input
 .text.btmemb_alloc
                0x8002008c       0xc0 c:/devkitPro/libogc/lib/wii\libbte.a(btmemb.o)
                0x8002008c                btmemb_alloc
 .text.btmemb_free
                0x8002014c       0xbc c:/devkitPro/libogc/lib/wii\libbte.a(btmemb.o)
                0x8002014c                btmemb_free
 .text.btmemb_init
                0x80020208       0x40 c:/devkitPro/libogc/lib/wii\libbte.a(btmemb.o)
                0x80020208                btmemb_init
 .text.plug_holes
                0x80020248       0xcc c:/devkitPro/libogc/lib/wii\libbte.a(btmemr.o)
 .text.btmemr_malloc
                0x80020314      0x190 c:/devkitPro/libogc/lib/wii\libbte.a(btmemr.o)
                0x80020314                btmemr_malloc
 .text.btmemr_free
                0x800204a4       0xa4 c:/devkitPro/libogc/lib/wii\libbte.a(btmemr.o)
                0x800204a4                btmemr_free
 .text.btmemr_realloc
                0x80020548      0x118 c:/devkitPro/libogc/lib/wii\libbte.a(btmemr.o)
                0x80020548                btmemr_realloc
 .text.btmemr_init
                0x80020660       0xa8 c:/devkitPro/libogc/lib/wii\libbte.a(btmemr.o)
                0x80020660                btmemr_init
 .text.btpbuf_header
                0x80020708       0xa8 c:/devkitPro/libogc/lib/wii\libbte.a(btpbuf.o)
                0x80020708                btpbuf_header
 .text.btpbuf_ref
                0x800207b0       0x48 c:/devkitPro/libogc/lib/wii\libbte.a(btpbuf.o)
                0x800207b0                btpbuf_ref
 .text.btpbuf_cat
                0x800207f8       0x5c c:/devkitPro/libogc/lib/wii\libbte.a(btpbuf.o)
                0x800207f8                btpbuf_cat
 .text.btpbuf_chain
                0x80020854       0x30 c:/devkitPro/libogc/lib/wii\libbte.a(btpbuf.o)
                0x80020854                btpbuf_chain
 .text.btpbuf_free
                0x80020884      0x110 c:/devkitPro/libogc/lib/wii\libbte.a(btpbuf.o)
                0x80020884                btpbuf_free
 .text.btpbuf_dechain
                0x80020994       0x7c c:/devkitPro/libogc/lib/wii\libbte.a(btpbuf.o)
                0x80020994                btpbuf_dechain
 .text.btpbuf_realloc
                0x80020a10       0xc0 c:/devkitPro/libogc/lib/wii\libbte.a(btpbuf.o)
                0x80020a10                btpbuf_realloc
 .text.btpbuf_alloc
                0x80020ad0      0x244 c:/devkitPro/libogc/lib/wii\libbte.a(btpbuf.o)
                0x80020ad0                btpbuf_alloc
 .text.btpbuf_take
                0x80020d14      0x124 c:/devkitPro/libogc/lib/wii\libbte.a(btpbuf.o)
                0x80020d14                btpbuf_take
 .text.btpbuf_init
                0x80020e38       0x34 c:/devkitPro/libogc/lib/wii\libbte.a(btpbuf.o)
                0x80020e38                btpbuf_init
 .text.__usb_closeCB
                0x80020e6c       0x10 c:/devkitPro/libogc/lib/wii\libbte.a(physbusif.o)
 .text.physbusif_close
                0x80020e7c       0x2c c:/devkitPro/libogc/lib/wii\libbte.a(physbusif.o)
                0x80020e7c                physbusif_close
 .text.physbusif_reset_all
                0x80020ea8        0x4 c:/devkitPro/libogc/lib/wii\libbte.a(physbusif.o)
                0x80020ea8                physbusif_reset_all
 .text.physbusif_output
                0x80020eac      0x18c c:/devkitPro/libogc/lib/wii\libbte.a(physbusif.o)
                0x80020eac                physbusif_output
 .text.__writebulkmsgCB
                0x80021038       0x40 c:/devkitPro/libogc/lib/wii\libbte.a(physbusif.o)
 .text.__writectrlmsgCB
                0x80021078       0x40 c:/devkitPro/libogc/lib/wii\libbte.a(physbusif.o)
 .text.physbusif_shutdown
                0x800210b8       0x50 c:/devkitPro/libogc/lib/wii\libbte.a(physbusif.o)
                0x800210b8                physbusif_shutdown
 .text.__initUsbIOBuffer
                0x80021108       0x98 c:/devkitPro/libogc/lib/wii\libbte.a(physbusif.o)
 .text.__issue_intrread
                0x800211a0       0xbc c:/devkitPro/libogc/lib/wii\libbte.a(physbusif.o)
 .text.__readintrdataCB
                0x8002125c      0x120 c:/devkitPro/libogc/lib/wii\libbte.a(physbusif.o)
 .text.__issue_bulkread
                0x8002137c       0xbc c:/devkitPro/libogc/lib/wii\libbte.a(physbusif.o)
 .text.physbusif_init
                0x80021438      0x1d0 c:/devkitPro/libogc/lib/wii\libbte.a(physbusif.o)
                0x80021438                physbusif_init
 .text.__readbulkdataCB
                0x80021608      0x120 c:/devkitPro/libogc/lib/wii\libbte.a(physbusif.o)
 .text.__console_clear
                0x80021728       0x60 c:/devkitPro/libogc/lib/wii\libogc.a(console.o)
 .text.__console_init
                0x80021788      0x128 c:/devkitPro/libogc/lib/wii\libogc.a(console.o)
                0x80021788                __console_init
 .text.CON_Init
                0x800218b0        0x4 c:/devkitPro/libogc/lib/wii\libogc.a(console.o)
                0x800218b0                CON_Init
 .text.__console_write
                0x800218b4      0x644 c:/devkitPro/libogc/lib/wii\libogc.a(console.o)
                0x800218b4                __console_write
 .text.__lwp_queue_initialize
                0x80021ef8       0x54 c:/devkitPro/libogc/lib/wii\libogc.a(lwp_queue.o)
                0x80021ef8                __lwp_queue_initialize
 .text.__lwp_queue_get
                0x80021f4c       0x7c c:/devkitPro/libogc/lib/wii\libogc.a(lwp_queue.o)
                0x80021f4c                __lwp_queue_get
 .text.__lwp_queue_append
                0x80021fc8       0x4c c:/devkitPro/libogc/lib/wii\libogc.a(lwp_queue.o)
                0x80021fc8                __lwp_queue_append
 .text.__lwp_isr_in_progress
                0x80022014        0x8 c:/devkitPro/libogc/lib/wii\libogc.a(lwp_threads.o)
                0x80022014                __lwp_isr_in_progress
 .text.__lwp_thread_resettimeslice
                0x8002201c       0xd0 c:/devkitPro/libogc/lib/wii\libogc.a(lwp_threads.o)
                0x8002201c                __lwp_thread_resettimeslice
 .text.__lwp_thread_setstate
                0x800220ec      0x158 c:/devkitPro/libogc/lib/wii\libogc.a(lwp_threads.o)
                0x800220ec                __lwp_thread_setstate
 .text.__lwp_thread_clearstate
                0x80022244      0x104 c:/devkitPro/libogc/lib/wii\libogc.a(lwp_threads.o)
                0x80022244                __lwp_thread_clearstate
 .text.__lwp_thread_delayended
                0x80022348       0x48 c:/devkitPro/libogc/lib/wii\libogc.a(lwp_threads.o)
                0x80022348                __lwp_thread_delayended
 .text.__lwp_thread_setpriority
                0x80022390       0x5c c:/devkitPro/libogc/lib/wii\libogc.a(lwp_threads.o)
                0x80022390                __lwp_thread_setpriority
 .text.__lwp_thread_settransient
                0x800223ec       0xd0 c:/devkitPro/libogc/lib/wii\libogc.a(lwp_threads.o)
                0x800223ec                __lwp_thread_settransient
 .text.__lwp_thread_loadenv
                0x800224bc       0x78 c:/devkitPro/libogc/lib/wii\libogc.a(lwp_threads.o)
                0x800224bc                __lwp_thread_loadenv
 .text.__lwp_thread_ready
                0x80022534       0xf8 c:/devkitPro/libogc/lib/wii\libogc.a(lwp_threads.o)
                0x80022534                __lwp_thread_ready
 .text.__thread_dispatch
                0x8002262c      0x12c c:/devkitPro/libogc/lib/wii\libogc.a(lwp_threads.o)
                0x8002262c                __thread_dispatch
 .text.__lwp_thread_start
                0x80022758       0x64 c:/devkitPro/libogc/lib/wii\libogc.a(lwp_threads.o)
                0x80022758                __lwp_thread_start
 .text.__lwp_thread_close
                0x800227bc      0x138 c:/devkitPro/libogc/lib/wii\libogc.a(lwp_threads.o)
                0x800227bc                __lwp_thread_close
 .text.__lwp_thread_closeall
                0x800228f4       0xd4 c:/devkitPro/libogc/lib/wii\libogc.a(lwp_threads.o)
                0x800228f4                __lwp_thread_closeall
 .text.__lwp_thread_init
                0x800229c8      0x124 c:/devkitPro/libogc/lib/wii\libogc.a(lwp_threads.o)
                0x800229c8                __lwp_thread_init
 .text.__thread_dispatch_fp
                0x80022aec       0x9c c:/devkitPro/libogc/lib/wii\libogc.a(lwp_threads.o)
                0x80022aec                __thread_dispatch_fp
 .text.__lwp_thread_stopmultitasking
                0x80022b88       0x64 c:/devkitPro/libogc/lib/wii\libogc.a(lwp_threads.o)
                0x80022b88                __lwp_thread_stopmultitasking
 .text.__lwp_thread_changepriority
                0x80022bec      0x1b8 c:/devkitPro/libogc/lib/wii\libogc.a(lwp_threads.o)
                0x80022bec                __lwp_thread_changepriority
 .text.__lwp_thread_coreinit
                0x80022da4       0x94 c:/devkitPro/libogc/lib/wii\libogc.a(lwp_threads.o)
                0x80022da4                __lwp_thread_coreinit
 .text.__lwp_thread_exit
                0x80022e38       0x70 c:/devkitPro/libogc/lib/wii\libogc.a(lwp_threads.o)
                0x80022e38                __lwp_thread_exit
 .text.__lwp_thread_handler
                0x80022ea8       0x7c c:/devkitPro/libogc/lib/wii\libogc.a(lwp_threads.o)
 .text.__lwp_thread_startmultitasking
                0x80022f24       0xcc c:/devkitPro/libogc/lib/wii\libogc.a(lwp_threads.o)
                0x80022f24                __lwp_thread_startmultitasking
 .text.__lwp_thread_tickle_timeslice
                0x80022ff0       0xe0 c:/devkitPro/libogc/lib/wii\libogc.a(lwp_threads.o)
                0x80022ff0                __lwp_thread_tickle_timeslice
 .text.idle_func
                0x800230d0        0x4 c:/devkitPro/libogc/lib/wii\libogc.a(lwp.o)
 .text.__lwp_sysinit
                0x800230d4      0x118 c:/devkitPro/libogc/lib/wii\libogc.a(lwp.o)
                0x800230d4                __lwp_sysinit
 .text.LWP_ThreadSignal
                0x800231ec       0x74 c:/devkitPro/libogc/lib/wii\libogc.a(lwp.o)
                0x800231ec                LWP_ThreadSignal
 .text.LWP_ThreadBroadcast
                0x80023260       0x88 c:/devkitPro/libogc/lib/wii\libogc.a(lwp.o)
                0x80023260                LWP_ThreadBroadcast
 .text.LWP_ThreadSleep
                0x800232e8       0xe0 c:/devkitPro/libogc/lib/wii\libogc.a(lwp.o)
                0x800232e8                LWP_ThreadSleep
 .text.LWP_CloseQueue
                0x800233c8       0xe8 c:/devkitPro/libogc/lib/wii\libogc.a(lwp.o)
                0x800233c8                LWP_CloseQueue
 .text.LWP_InitQueue
                0x800234b0      0x124 c:/devkitPro/libogc/lib/wii\libogc.a(lwp.o)
                0x800234b0                LWP_InitQueue
 .text.LWP_CreateThread
                0x800235d4      0x1b0 c:/devkitPro/libogc/lib/wii\libogc.a(lwp.o)
                0x800235d4                LWP_CreateThread
 .text.__lwp_stack_free
                0x80023784       0x38 c:/devkitPro/libogc/lib/wii\libogc.a(lwp_stack.o)
                0x80023784                __lwp_stack_free
 .text.__lwp_stack_allocate
                0x800237bc       0x6c c:/devkitPro/libogc/lib/wii\libogc.a(lwp_stack.o)
                0x800237bc                __lwp_stack_allocate
 .text.__lwp_watchdog_init
                0x80023828       0x2c c:/devkitPro/libogc/lib/wii\libogc.a(lwp_watchdog.o)
                0x80023828                __lwp_watchdog_init
 .text.__lwp_wd_settimer
                0x80023854       0xe0 c:/devkitPro/libogc/lib/wii\libogc.a(lwp_watchdog.o)
 .text.__lwp_wd_remove
                0x80023934      0x104 c:/devkitPro/libogc/lib/wii\libogc.a(lwp_watchdog.o)
                0x80023934                __lwp_wd_remove
 .text.__lwp_wd_insert
                0x80023a38      0x1c4 c:/devkitPro/libogc/lib/wii\libogc.a(lwp_watchdog.o)
                0x80023a38                __lwp_wd_insert
 .text.__lwp_wd_tickle
                0x80023bfc      0x130 c:/devkitPro/libogc/lib/wii\libogc.a(lwp_watchdog.o)
                0x80023bfc                __lwp_wd_tickle
 .text.__lwp_wkspace_init
                0x80023d2c       0xc8 c:/devkitPro/libogc/lib/wii\libogc.a(lwp_wkspace.o)
                0x80023d2c                __lwp_wkspace_init
 .text.__lwp_objmgr_getisrdisable
                0x80023df4       0x64 c:/devkitPro/libogc/lib/wii\libogc.a(lwp_objmgr.o)
                0x80023df4                __lwp_objmgr_getisrdisable
 .text.__lwp_objmgr_getnoprotection
                0x80023e58       0x24 c:/devkitPro/libogc/lib/wii\libogc.a(lwp_objmgr.o)
                0x80023e58                __lwp_objmgr_getnoprotection
 .text.__lwp_objmgr_allocate
                0x80023e7c       0x74 c:/devkitPro/libogc/lib/wii\libogc.a(lwp_objmgr.o)
                0x80023e7c                __lwp_objmgr_allocate
 .text.__lwp_objmgr_free
                0x80023ef0       0x5c c:/devkitPro/libogc/lib/wii\libogc.a(lwp_objmgr.o)
                0x80023ef0                __lwp_objmgr_free
 .text.__lwp_objmgr_get
                0x80023f4c       0x78 c:/devkitPro/libogc/lib/wii\libogc.a(lwp_objmgr.o)
                0x80023f4c                __lwp_objmgr_get
 .text.__lwp_objmgr_initinfo
                0x80023fc4      0x1b0 c:/devkitPro/libogc/lib/wii\libogc.a(lwp_objmgr.o)
                0x80023fc4                __lwp_objmgr_initinfo
 .text.__lwp_heap_init
                0x80024174       0x9c c:/devkitPro/libogc/lib/wii\libogc.a(lwp_heap.o)
                0x80024174                __lwp_heap_init
 .text.__lwp_heap_free
                0x80024210      0x1d4 c:/devkitPro/libogc/lib/wii\libogc.a(lwp_heap.o)
                0x80024210                __lwp_heap_free
 .text.__lwp_heap_allocate
                0x800243e4      0x16c c:/devkitPro/libogc/lib/wii\libogc.a(lwp_heap.o)
                0x800243e4                __lwp_heap_allocate
 .text.c_irqdispatcher
                0x80024550      0x2ac c:/devkitPro/libogc/lib/wii\libogc.a(irq.o)
                0x80024550                c_irqdispatcher
 .text.__SetInterrupts
                0x800247fc      0x268 c:/devkitPro/libogc/lib/wii\libogc.a(irq.o)
 .text.__UnmaskIrq
                0x80024a64       0x90 c:/devkitPro/libogc/lib/wii\libogc.a(irq.o)
                0x80024a64                __UnmaskIrq
 .text.__MaskIrq
                0x80024af4       0x90 c:/devkitPro/libogc/lib/wii\libogc.a(irq.o)
                0x80024af4                __MaskIrq
 .text.IRQ_Request
                0x80024b84       0x54 c:/devkitPro/libogc/lib/wii\libogc.a(irq.o)
                0x80024b84                IRQ_Request
 .text.IRQ_GetHandler
                0x80024bd8       0x44 c:/devkitPro/libogc/lib/wii\libogc.a(irq.o)
                0x80024bd8                IRQ_GetHandler
 .text.IRQ_Disable
                0x80024c1c       0x20 c:/devkitPro/libogc/lib/wii\libogc.a(irq.o)
                0x80024c1c                IRQ_Disable
 .text.IRQ_Restore
                0x80024c3c       0x1c c:/devkitPro/libogc/lib/wii\libogc.a(irq.o)
                0x80024c3c                IRQ_Restore
 .text.__irq_init
                0x80024c58       0xac c:/devkitPro/libogc/lib/wii\libogc.a(irq.o)
                0x80024c58                __irq_init
 .text.__gettiming
                0x80024d04       0xb0 c:/devkitPro/libogc/lib/wii\libogc.a(video.o)
 .text.VIDEO_Flush
                0x80024db4      0x178 c:/devkitPro/libogc/lib/wii\libogc.a(video.o)
                0x80024db4                VIDEO_Flush
 .text.VIDEO_GetCurrentTvMode
                0x80024f2c       0x70 c:/devkitPro/libogc/lib/wii\libogc.a(video.o)
                0x80024f2c                VIDEO_GetCurrentTvMode
 .text.VIDEO_HaveComponentCable
                0x80024f9c       0x14 c:/devkitPro/libogc/lib/wii\libogc.a(video.o)
                0x80024f9c                VIDEO_HaveComponentCable
 .text.VIDEO_GetPreferredMode
                0x80024fb0       0xd0 c:/devkitPro/libogc/lib/wii\libogc.a(video.o)
                0x80024fb0                VIDEO_GetPreferredMode
 .text.VIDEO_WaitVSync
                0x80025080       0x90 c:/devkitPro/libogc/lib/wii\libogc.a(video.o)
                0x80025080                VIDEO_WaitVSync
 .text.__VISendI2CData
                0x80025110      0x560 c:/devkitPro/libogc/lib/wii\libogc.a(video.o)
 .text.__VIWriteI2CRegisterBuf
                0x80025670       0x54 c:/devkitPro/libogc/lib/wii\libogc.a(video.o)
 .text.__VIWriteI2CRegister32
                0x800256c4       0x58 c:/devkitPro/libogc/lib/wii\libogc.a(video.o)
 .text.__VIWriteI2CRegister16
                0x8002571c       0x48 c:/devkitPro/libogc/lib/wii\libogc.a(video.o)
 .text.__VIWriteI2CRegister8
                0x80025764       0x3c c:/devkitPro/libogc/lib/wii\libogc.a(video.o)
 .text.__VISetFilterEURGB60
                0x800257a0        0xc c:/devkitPro/libogc/lib/wii\libogc.a(video.o)
 .text.__VISetYUVSEL
                0x800257ac       0x90 c:/devkitPro/libogc/lib/wii\libogc.a(video.o)
 .text.VIDEO_Init
                0x8002583c      0x818 c:/devkitPro/libogc/lib/wii\libogc.a(video.o)
                0x8002583c                VIDEO_Init
 .text.__VIRetraceHandler
                0x80026054      0x308 c:/devkitPro/libogc/lib/wii\libogc.a(video.o)
 .text.VIDEO_GetCurrentLine
                0x8002635c       0xa8 c:/devkitPro/libogc/lib/wii\libogc.a(video.o)
                0x8002635c                VIDEO_GetCurrentLine
 .text.VIDEO_SetBlack
                0x80026404      0x158 c:/devkitPro/libogc/lib/wii\libogc.a(video.o)
                0x80026404                VIDEO_SetBlack
 .text.VIDEO_Configure
                0x8002655c      0x874 c:/devkitPro/libogc/lib/wii\libogc.a(video.o)
                0x8002655c                VIDEO_Configure
 .text.VIDEO_SetNextFramebuffer
                0x80026dd0      0x234 c:/devkitPro/libogc/lib/wii\libogc.a(video.o)
                0x80026dd0                VIDEO_SetNextFramebuffer
 .text.VIDEO_SetFramebuffer
                0x80027004      0x340 c:/devkitPro/libogc/lib/wii\libogc.a(video.o)
                0x80027004                VIDEO_SetFramebuffer
 .text.__PADDisableRecalibration
                0x80027344       0x5c c:/devkitPro/libogc/lib/wii\libogc.a(pad.o)
                0x80027344                __PADDisableRecalibration
 .text.PAD_ButtonsDown
                0x800273a0       0x34 c:/devkitPro/libogc/lib/wii\libogc.a(pad.o)
                0x800273a0                PAD_ButtonsDown
 .text.__pad_updateorigin
                0x800273d4       0xa4 c:/devkitPro/libogc/lib/wii\libogc.a(pad.o)
 .text.__pad_doreset
                0x80027478       0x74 c:/devkitPro/libogc/lib/wii\libogc.a(pad.o)
 .text.PAD_Reset
                0x800274ec      0x12c c:/devkitPro/libogc/lib/wii\libogc.a(pad.o)
                0x800274ec                PAD_Reset
 .text.__pad_enable
                0x80027618       0x68 c:/devkitPro/libogc/lib/wii\libogc.a(pad.o)
 .text.__pad_typeandstatuscallback
                0x80027680      0x194 c:/devkitPro/libogc/lib/wii\libogc.a(pad.o)
 .text.__pad_origincallback
                0x80027814       0x40 c:/devkitPro/libogc/lib/wii\libogc.a(pad.o)
 .text.__pad_probecallback
                0x80027854       0x54 c:/devkitPro/libogc/lib/wii\libogc.a(pad.o)
 .text.__pad_disable
                0x800278a8       0xd0 c:/devkitPro/libogc/lib/wii\libogc.a(pad.o)
 .text.PAD_Read
                0x80027978      0x2f4 c:/devkitPro/libogc/lib/wii\libogc.a(pad.o)
                0x80027978                PAD_Read
 .text.PAD_ScanPads
                0x80027c6c      0x17c c:/devkitPro/libogc/lib/wii\libogc.a(pad.o)
                0x80027c6c                PAD_ScanPads
 .text.__pad_receivecheckcallback
                0x80027de8       0xc0 c:/devkitPro/libogc/lib/wii\libogc.a(pad.o)
 .text.__pad_originupdatecallback
                0x80027ea8       0x88 c:/devkitPro/libogc/lib/wii\libogc.a(pad.o)
 .text.__MEMInterruptHandler
                0x80027f30       0x14 c:/devkitPro/libogc/lib/wii\libogc.a(system.o)
 .text.__RSWDefaultHandler
                0x80027f44        0x4 c:/devkitPro/libogc/lib/wii\libogc.a(system.o)
 .text.__POWDefaultHandler
                0x80027f48        0x4 c:/devkitPro/libogc/lib/wii\libogc.a(system.o)
 .text.__sram_sync
                0x80027f4c        0xc c:/devkitPro/libogc/lib/wii\libogc.a(system.o)
 .text.__call_resetfuncs
                0x80027f58       0xb0 c:/devkitPro/libogc/lib/wii\libogc.a(system.o)
 .text.__locksram
                0x80028008       0x60 c:/devkitPro/libogc/lib/wii\libogc.a(system.o)
 .text.__SYS_LockSramEx
                0x80028068        0x8 c:/devkitPro/libogc/lib/wii\libogc.a(system.o)
                0x80028068                __SYS_LockSramEx
 .text.__SYS_GetIPCBufferLo
                0x80028070        0xc c:/devkitPro/libogc/lib/wii\libogc.a(system.o)
                0x80028070                __SYS_GetIPCBufferLo
 .text.__SYS_GetIPCBufferHi
                0x8002807c        0xc c:/devkitPro/libogc/lib/wii\libogc.a(system.o)
                0x8002807c                __SYS_GetIPCBufferHi
 .text._V_EXPORTNAME
                0x80028088       0x24 c:/devkitPro/libogc/lib/wii\libogc.a(system.o)
                0x80028088                _V_EXPORTNAME
 .text.__SYS_DoPowerCB
                0x800280ac       0x78 c:/devkitPro/libogc/lib/wii\libogc.a(system.o)
                0x800280ac                __SYS_DoPowerCB
 .text.__SYS_InitCallbacks
                0x80028124       0x30 c:/devkitPro/libogc/lib/wii\libogc.a(system.o)
                0x80028124                __SYS_InitCallbacks
 .text.SYS_ResetButtonDown
                0x80028154       0x18 c:/devkitPro/libogc/lib/wii\libogc.a(system.o)
                0x80028154                SYS_ResetButtonDown
 .text.__STMEventHandler
                0x8002816c      0x10c c:/devkitPro/libogc/lib/wii\libogc.a(system.o)
 .text.SYS_RegisterResetFunc
                0x80028278       0x94 c:/devkitPro/libogc/lib/wii\libogc.a(system.o)
                0x80028278                SYS_RegisterResetFunc
 .text.SYS_SetArena1Lo
                0x8002830c       0x3c c:/devkitPro/libogc/lib/wii\libogc.a(system.o)
                0x8002830c                SYS_SetArena1Lo
 .text.SYS_GetArena1Lo
                0x80028348       0x3c c:/devkitPro/libogc/lib/wii\libogc.a(system.o)
                0x80028348                SYS_GetArena1Lo
 .text.SYS_SetArena1Hi
                0x80028384       0x3c c:/devkitPro/libogc/lib/wii\libogc.a(system.o)
                0x80028384                SYS_SetArena1Hi
 .text.SYS_GetArena1Hi
                0x800283c0       0x3c c:/devkitPro/libogc/lib/wii\libogc.a(system.o)
                0x800283c0                SYS_GetArena1Hi
 .text.SYS_SetArena2Lo
                0x800283fc       0x3c c:/devkitPro/libogc/lib/wii\libogc.a(system.o)
                0x800283fc                SYS_SetArena2Lo
 .text.SYS_GetArena2Lo
                0x80028438       0x3c c:/devkitPro/libogc/lib/wii\libogc.a(system.o)
                0x80028438                SYS_GetArena2Lo
 .text.SYS_SetArena2Hi
                0x80028474       0x3c c:/devkitPro/libogc/lib/wii\libogc.a(system.o)
                0x80028474                SYS_SetArena2Hi
 .text.SYS_GetArena2Hi
                0x800284b0       0x3c c:/devkitPro/libogc/lib/wii\libogc.a(system.o)
                0x800284b0                SYS_GetArena2Hi
 .text.SYS_GetHollywoodRevision
                0x800284ec       0x3c c:/devkitPro/libogc/lib/wii\libogc.a(system.o)
                0x800284ec                SYS_GetHollywoodRevision
 .text.SYS_AllocateFramebuffer
                0x80028528       0x3c c:/devkitPro/libogc/lib/wii\libogc.a(system.o)
                0x80028528                SYS_AllocateFramebuffer
 .text.__mem_onreset
                0x80028564       0x54 c:/devkitPro/libogc/lib/wii\libogc.a(system.o)
 .text.SYS_PreMain
                0x800285b8       0x38 c:/devkitPro/libogc/lib/wii\libogc.a(system.o)
                0x800285b8                SYS_PreMain
 .text.__sram_init
                0x800285f0      0x168 c:/devkitPro/libogc/lib/wii\libogc.a(system.o)
                0x800285f0                __sram_init
 .text.SYS_Init
                0x80028758      0x540 c:/devkitPro/libogc/lib/wii\libogc.a(system.o)
                0x80028758                SYS_Init
 .text.__sram_write
                0x80028c98      0x148 c:/devkitPro/libogc/lib/wii\libogc.a(system.o)
 .text.__unlocksram
                0x80028de0      0x14c c:/devkitPro/libogc/lib/wii\libogc.a(system.o)
 .text.__SYS_UnlockSramEx
                0x80028f2c        0x8 c:/devkitPro/libogc/lib/wii\libogc.a(system.o)
                0x80028f2c                __SYS_UnlockSramEx
 .text.SYS_GetWirelessID
                0x80028f34       0x4c c:/devkitPro/libogc/lib/wii\libogc.a(system.o)
                0x80028f34                SYS_GetWirelessID
 .text.SYS_SetWirelessID
                0x80028f80       0x60 c:/devkitPro/libogc/lib/wii\libogc.a(system.o)
                0x80028f80                SYS_SetWirelessID
 .text.__sram_writecallback
                0x80028fe0       0x58 c:/devkitPro/libogc/lib/wii\libogc.a(system.o)
 .text.SYS_ResetSystem
                0x80029038      0x234 c:/devkitPro/libogc/lib/wii\libogc.a(system.o)
                0x80029038                SYS_ResetSystem
 .text.SYS_CreateAlarm
                0x8002926c      0x10c c:/devkitPro/libogc/lib/wii\libogc.a(system.o)
                0x8002926c                SYS_CreateAlarm
 .text.SYS_CancelAlarm
                0x80029378       0xb0 c:/devkitPro/libogc/lib/wii\libogc.a(system.o)
                0x80029378                SYS_CancelAlarm
 .text.SYS_RemoveAlarm
                0x80029428       0xf0 c:/devkitPro/libogc/lib/wii\libogc.a(system.o)
                0x80029428                SYS_RemoveAlarm
 .text.SYS_SetAlarm
                0x80029518      0x17c c:/devkitPro/libogc/lib/wii\libogc.a(system.o)
                0x80029518                SYS_SetAlarm
 .text.__sys_alarmhandler
                0x80029694      0x104 c:/devkitPro/libogc/lib/wii\libogc.a(system.o)
 .text.SYS_SetPeriodicAlarm
                0x80029798      0x1dc c:/devkitPro/libogc/lib/wii\libogc.a(system.o)
                0x80029798                SYS_SetPeriodicAlarm
 .text.__lwp_cond_init
                0x80029974       0x30 c:/devkitPro/libogc/lib/wii\libogc.a(cond.o)
                0x80029974                __lwp_cond_init
 .text.__decrementer_init
                0x800299a4        0x4 c:/devkitPro/libogc/lib/wii\libogc.a(decrementer.o)
                0x800299a4                __decrementer_init
 .text.c_decrementer_handler
                0x800299a8       0x28 c:/devkitPro/libogc/lib/wii\libogc.a(decrementer.o)
                0x800299a8                c_decrementer_handler
 .text.__lwp_mqbox_init
                0x800299d0       0x30 c:/devkitPro/libogc/lib/wii\libogc.a(message.o)
                0x800299d0                __lwp_mqbox_init
 .text.__si_transfer
                0x80029a00      0x15c c:/devkitPro/libogc/lib/wii\libogc.a(si.o)
 .text.__si_alarmhandler
                0x80029b5c       0xb4 c:/devkitPro/libogc/lib/wii\libogc.a(si.o)
 .text.__si_calltypandstatuscallback
                0x80029c10       0x8c c:/devkitPro/libogc/lib/wii\libogc.a(si.o)
 .text.SI_IsChanBusy
                0x80029c9c       0x38 c:/devkitPro/libogc/lib/wii\libogc.a(si.o)
                0x80029c9c                SI_IsChanBusy
 .text.SI_SetXY
                0x80029cd4       0x64 c:/devkitPro/libogc/lib/wii\libogc.a(si.o)
                0x80029cd4                SI_SetXY
 .text.SI_DisablePolling
                0x80029d38       0x58 c:/devkitPro/libogc/lib/wii\libogc.a(si.o)
                0x80029d38                SI_DisablePolling
 .text.SI_GetStatus
                0x80029d90       0x7c c:/devkitPro/libogc/lib/wii\libogc.a(si.o)
                0x80029d90                SI_GetStatus
 .text.SI_GetResponseRaw
                0x80029e0c       0x78 c:/devkitPro/libogc/lib/wii\libogc.a(si.o)
                0x80029e0c                SI_GetResponseRaw
 .text.SI_GetResponse
                0x80029e84       0xb4 c:/devkitPro/libogc/lib/wii\libogc.a(si.o)
                0x80029e84                SI_GetResponse
 .text.SI_SetCommand
                0x80029f38       0x10 c:/devkitPro/libogc/lib/wii\libogc.a(si.o)
                0x80029f38                SI_SetCommand
 .text.SI_TransferCommands
                0x80029f48       0x14 c:/devkitPro/libogc/lib/wii\libogc.a(si.o)
                0x80029f48                SI_TransferCommands
 .text.SI_EnablePolling
                0x80029f5c       0xa0 c:/devkitPro/libogc/lib/wii\libogc.a(si.o)
                0x80029f5c                SI_EnablePolling
 .text.__si_completetransfer
                0x80029ffc      0x1a8 c:/devkitPro/libogc/lib/wii\libogc.a(si.o)
 .text.__si_transfernext
                0x8002a1a4       0xe0 c:/devkitPro/libogc/lib/wii\libogc.a(si.o)
 .text.SI_Transfer
                0x8002a284      0x21c c:/devkitPro/libogc/lib/wii\libogc.a(si.o)
                0x8002a284                SI_Transfer
 .text.SI_GetType
                0x8002a4a0      0x228 c:/devkitPro/libogc/lib/wii\libogc.a(si.o)
                0x8002a4a0                SI_GetType
 .text.SI_GetTypeAsync
                0x8002a6c8      0x13c c:/devkitPro/libogc/lib/wii\libogc.a(si.o)
                0x8002a6c8                SI_GetTypeAsync
 .text.__si_interrupthandler
                0x8002a804      0x24c c:/devkitPro/libogc/lib/wii\libogc.a(si.o)
 .text.__si_gettypecallback
                0x8002aa50      0x268 c:/devkitPro/libogc/lib/wii\libogc.a(si.o)
 .text.SI_SetSamplingRate
                0x8002acb8       0xf4 c:/devkitPro/libogc/lib/wii\libogc.a(si.o)
                0x8002acb8                SI_SetSamplingRate
 .text.__si_init
                0x8002adac       0xf8 c:/devkitPro/libogc/lib/wii\libogc.a(si.o)
                0x8002adac                __si_init
 .text.SI_RefreshSamplingRate
                0x8002aea4        0xc c:/devkitPro/libogc/lib/wii\libogc.a(si.o)
                0x8002aea4                SI_RefreshSamplingRate
 .text.IPC_GetBufferLo
                0x8002aeb0        0xc c:/devkitPro/libogc/lib/wii\libogc.a(ipc.o)
                0x8002aeb0                IPC_GetBufferLo
 .text.IPC_GetBufferHi
                0x8002aebc        0xc c:/devkitPro/libogc/lib/wii\libogc.a(ipc.o)
                0x8002aebc                IPC_GetBufferHi
 .text.IPC_SetBufferLo
                0x8002aec8       0x1c c:/devkitPro/libogc/lib/wii\libogc.a(ipc.o)
                0x8002aec8                IPC_SetBufferLo
 .text.__ipc_sendrequest
                0x8002aee4      0x10c c:/devkitPro/libogc/lib/wii\libogc.a(ipc.o)
 .text.__ipc_syncrequest
                0x8002aff0       0xe4 c:/devkitPro/libogc/lib/wii\libogc.a(ipc.o)
 .text.iosAlloc
                0x8002b0d4       0x4c c:/devkitPro/libogc/lib/wii\libogc.a(ipc.o)
                0x8002b0d4                iosAlloc
 .text.iosFree  0x8002b120       0x44 c:/devkitPro/libogc/lib/wii\libogc.a(ipc.o)
                0x8002b120                iosFree
 .text.__ios_ioctlvformat_parse
                0x8002b164      0x790 c:/devkitPro/libogc/lib/wii\libogc.a(ipc.o)
 .text.__ioctlvfmtCB
                0x8002b8f4      0x110 c:/devkitPro/libogc/lib/wii\libogc.a(ipc.o)
 .text.__IPC_Init
                0x8002ba04       0x64 c:/devkitPro/libogc/lib/wii\libogc.a(ipc.o)
                0x8002ba04                __IPC_Init
 .text.iosCreateHeap
                0x8002ba68      0x160 c:/devkitPro/libogc/lib/wii\libogc.a(ipc.o)
                0x8002ba68                iosCreateHeap
 .text.__IPC_ClntInit
                0x8002bbc8       0x78 c:/devkitPro/libogc/lib/wii\libogc.a(ipc.o)
                0x8002bbc8                __IPC_ClntInit
 .text.__ipc_interrupthandler
                0x8002bc40      0x320 c:/devkitPro/libogc/lib/wii\libogc.a(ipc.o)
 .text.IOS_Write
                0x8002bf60       0xc0 c:/devkitPro/libogc/lib/wii\libogc.a(ipc.o)
                0x8002bf60                IOS_Write
 .text.__ipc_asyncrequest
                0x8002c020      0x110 c:/devkitPro/libogc/lib/wii\libogc.a(ipc.o)
 .text.IOS_IoctlvReboot
                0x8002c130      0x1a0 c:/devkitPro/libogc/lib/wii\libogc.a(ipc.o)
                0x8002c130                IOS_IoctlvReboot
 .text.IOS_Open
                0x8002c2d0       0xc8 c:/devkitPro/libogc/lib/wii\libogc.a(ipc.o)
                0x8002c2d0                IOS_Open
 .text.IOS_Read
                0x8002c398       0xc0 c:/devkitPro/libogc/lib/wii\libogc.a(ipc.o)
                0x8002c398                IOS_Read
 .text.IOS_CloseAsync
                0x8002c458       0x94 c:/devkitPro/libogc/lib/wii\libogc.a(ipc.o)
                0x8002c458                IOS_CloseAsync
 .text.IOS_Close
                0x8002c4ec       0x8c c:/devkitPro/libogc/lib/wii\libogc.a(ipc.o)
                0x8002c4ec                IOS_Close
 .text.IOS_IoctlvAsync
                0x8002c578      0x1c0 c:/devkitPro/libogc/lib/wii\libogc.a(ipc.o)
                0x8002c578                IOS_IoctlvAsync
 .text.IOS_Ioctlv
                0x8002c738      0x19c c:/devkitPro/libogc/lib/wii\libogc.a(ipc.o)
                0x8002c738                IOS_Ioctlv
 .text.IOS_IoctlvFormat
                0x8002c8d4      0x178 c:/devkitPro/libogc/lib/wii\libogc.a(ipc.o)
                0x8002c8d4                IOS_IoctlvFormat
 .text.IOS_IoctlAsync
                0x8002ca4c      0x128 c:/devkitPro/libogc/lib/wii\libogc.a(ipc.o)
                0x8002ca4c                IOS_IoctlAsync
 .text.IOS_Ioctl
                0x8002cb74      0x100 c:/devkitPro/libogc/lib/wii\libogc.a(ipc.o)
                0x8002cb74                IOS_Ioctl
 .text.gettick  0x8002cc74       0x10 c:/devkitPro/libogc/lib/wii\libogc.a(timesupp.o)
                0x8002cc74                gettick
 .text.gettime  0x8002cc84       0x24 c:/devkitPro/libogc/lib/wii\libogc.a(timesupp.o)
                0x8002cc84                gettime
 .text.diff_usec
                0x8002cca8       0x9c c:/devkitPro/libogc/lib/wii\libogc.a(timesupp.o)
                0x8002cca8                diff_usec
 .text.udelay   0x8002cd44       0x64 c:/devkitPro/libogc/lib/wii\libogc.a(timesupp.o)
                0x8002cd44                udelay
 .text.nanosleep
                0x8002cda8      0x120 c:/devkitPro/libogc/lib/wii\libogc.a(timesupp.o)
                0x8002cda8                nanosleep
 .text.usleep   0x8002cec8       0x64 c:/devkitPro/libogc/lib/wii\libogc.a(timesupp.o)
                0x8002cec8                usleep
 .text.__timesystem_init
                0x8002cf2c       0x40 c:/devkitPro/libogc/lib/wii\libogc.a(timesupp.o)
                0x8002cf2c                __timesystem_init
 .text.__libogc_lock_release
                0x8002cf6c       0x3c c:/devkitPro/libogc/lib/wii\libogc.a(lock_supp.o)
                0x8002cf6c                __libogc_lock_release
 .text.__libogc_lock_acquire
                0x8002cfa8       0x3c c:/devkitPro/libogc/lib/wii\libogc.a(lock_supp.o)
                0x8002cfa8                __libogc_lock_acquire
 .text.__libogc_lock_close
                0x8002cfe4       0x50 c:/devkitPro/libogc/lib/wii\libogc.a(lock_supp.o)
                0x8002cfe4                __libogc_lock_close
 .text.__libogc_lock_init
                0x8002d034       0x64 c:/devkitPro/libogc/lib/wii\libogc.a(lock_supp.o)
                0x8002d034                __libogc_lock_init
 .text.__libc_create_hook
                0x8002d098       0x10 c:/devkitPro/libogc/lib/wii\libogc.a(newlibc.o)
                0x8002d098                __libc_create_hook
 .text.__libc_init
                0x8002d0a8      0x178 c:/devkitPro/libogc/lib/wii\libogc.a(newlibc.o)
                0x8002d0a8                __libc_init
 .text.__libc_delete_hook
                0x8002d220       0xbc c:/devkitPro/libogc/lib/wii\libogc.a(newlibc.o)
                0x8002d220                __libc_delete_hook
 .text.__libc_start_hook
                0x8002d2dc      0x1c0 c:/devkitPro/libogc/lib/wii\libogc.a(newlibc.o)
                0x8002d2dc                __libc_start_hook
 .text.__usbgecko_init
                0x8002d49c       0x58 c:/devkitPro/libogc/lib/wii\libogc.a(usbgecko.o)
 .text.__usbgecko_exi_unlock
                0x8002d4f4       0x34 c:/devkitPro/libogc/lib/wii\libogc.a(usbgecko.o)
 .text.__usb_sendbyte
                0x8002d528       0xc8 c:/devkitPro/libogc/lib/wii\libogc.a(usbgecko.o)
 .text.usb_sendbuffer
                0x8002d5f0      0x138 c:/devkitPro/libogc/lib/wii\libogc.a(usbgecko.o)
                0x8002d5f0                usb_sendbuffer
 .text.__usb_checksend
                0x8002d728       0xc0 c:/devkitPro/libogc/lib/wii\libogc.a(usbgecko.o)
                0x8002d728                __usb_checksend
 .text.usb_sendbuffer_safe
                0x8002d7e8      0x150 c:/devkitPro/libogc/lib/wii\libogc.a(usbgecko.o)
                0x8002d7e8                usb_sendbuffer_safe
 .text.__libogc_sbrk_r
                0x8002d938       0xe0 c:/devkitPro/libogc/lib/wii\libogc.a(sbrk.o)
                0x8002d938                __libogc_sbrk_r
 .text.__libogc_malloc_lock
                0x8002da18      0x230 c:/devkitPro/libogc/lib/wii\libogc.a(malloc_lock.o)
                0x8002da18                __libogc_malloc_lock
 .text.__memlock_init
                0x8002dc48       0x70 c:/devkitPro/libogc/lib/wii\libogc.a(malloc_lock.o)
                0x8002dc48                __memlock_init
 .text.__libogc_malloc_unlock
                0x8002dcb8       0x70 c:/devkitPro/libogc/lib/wii\libogc.a(malloc_lock.o)
                0x8002dcb8                __libogc_malloc_unlock
 .text.STM_RegisterEventHandler
                0x8002dd28       0x14 c:/devkitPro/libogc/lib/wii\libogc.a(stm.o)
                0x8002dd28                STM_RegisterEventHandler
 .text.STM_RebootSystem
                0x8002dd3c       0x70 c:/devkitPro/libogc/lib/wii\libogc.a(stm.o)
                0x8002dd3c                STM_RebootSystem
 .text.STM_SetLedMode
                0x8002ddac       0x60 c:/devkitPro/libogc/lib/wii\libogc.a(stm.o)
                0x8002ddac                STM_SetLedMode
 .text.STM_ShutdownToStandby
                0x8002de0c       0x70 c:/devkitPro/libogc/lib/wii\libogc.a(stm.o)
                0x8002de0c                STM_ShutdownToStandby
 .text.__STM_ReleaseEventHook
                0x8002de7c       0x94 c:/devkitPro/libogc/lib/wii\libogc.a(stm.o)
                0x8002de7c                __STM_ReleaseEventHook
 .text.STM_ShutdownToIdle
                0x8002df10       0x9c c:/devkitPro/libogc/lib/wii\libogc.a(stm.o)
                0x8002df10                STM_ShutdownToIdle
 .text.__STM_SetEventHook
                0x8002dfac       0xe8 c:/devkitPro/libogc/lib/wii\libogc.a(stm.o)
                0x8002dfac                __STM_SetEventHook
 .text.__STMEventHandler
                0x8002e094       0x6c c:/devkitPro/libogc/lib/wii\libogc.a(stm.o)
 .text.__STM_Close
                0x8002e100       0x9c c:/devkitPro/libogc/lib/wii\libogc.a(stm.o)
                0x8002e100                __STM_Close
 .text.__STM_Init
                0x8002e19c       0xac c:/devkitPro/libogc/lib/wii\libogc.a(stm.o)
                0x8002e19c                __STM_Init
 .text.IOS_GetVersion
                0x8002e248       0x54 c:/devkitPro/libogc/lib/wii\libogc.a(ios.o)
                0x8002e248                IOS_GetVersion
 .text.__IOS_LaunchNewIOS
                0x8002e29c       0xf4 c:/devkitPro/libogc/lib/wii\libogc.a(ios.o)
                0x8002e29c                __IOS_LaunchNewIOS
 .text.__IOS_ShutdownSubsystems
                0x8002e390       0x48 c:/devkitPro/libogc/lib/wii\libogc.a(ios.o)
                0x8002e390                __IOS_ShutdownSubsystems
 .text.__IOS_InitializeSubsystems
                0x8002e3d8       0x48 c:/devkitPro/libogc/lib/wii\libogc.a(ios.o)
                0x8002e3d8                __IOS_InitializeSubsystems
 .text.__IOS_InitHeap
                0x8002e420       0x70 c:/devkitPro/libogc/lib/wii\libogc.a(ios.o)
                0x8002e420                __IOS_InitHeap
 .text.IOS_GetPreferredVersion
                0x8002e490      0x100 c:/devkitPro/libogc/lib/wii\libogc.a(ios.o)
                0x8002e490                IOS_GetPreferredVersion
 .text.__IOS_LoadStartupIOS
                0x8002e590       0x6c c:/devkitPro/libogc/lib/wii\libogc.a(ios.o)
                0x8002e590                __IOS_LoadStartupIOS
 .text.__ES_Reset
                0x8002e5fc       0x14 c:/devkitPro/libogc/lib/wii\libogc.a(es.o)
                0x8002e5fc                __ES_Reset
 .text.ES_CloseContent
                0x8002e610       0x6c c:/devkitPro/libogc/lib/wii\libogc.a(es.o)
                0x8002e610                ES_CloseContent
 .text.ES_SeekContent
                0x8002e67c       0x78 c:/devkitPro/libogc/lib/wii\libogc.a(es.o)
                0x8002e67c                ES_SeekContent
 .text.ES_ReadContent
                0x8002e6f4       0x98 c:/devkitPro/libogc/lib/wii\libogc.a(es.o)
                0x8002e6f4                ES_ReadContent
 .text.ES_OpenTitleContent
                0x8002e78c       0x5c c:/devkitPro/libogc/lib/wii\libogc.a(es.o)
                0x8002e78c                ES_OpenTitleContent
 .text.ES_OpenContent
                0x8002e7e8       0x50 c:/devkitPro/libogc/lib/wii\libogc.a(es.o)
                0x8002e7e8                ES_OpenContent
 .text.ES_GetStoredTMD
                0x8002e838       0xa4 c:/devkitPro/libogc/lib/wii\libogc.a(es.o)
                0x8002e838                ES_GetStoredTMD
 .text.ES_GetStoredTMDSize
                0x8002e8dc       0x88 c:/devkitPro/libogc/lib/wii\libogc.a(es.o)
                0x8002e8dc                ES_GetStoredTMDSize
 .text.ES_GetTitles
                0x8002e964       0x90 c:/devkitPro/libogc/lib/wii\libogc.a(es.o)
                0x8002e964                ES_GetTitles
 .text.ES_GetNumTitles
                0x8002e9f4       0x7c c:/devkitPro/libogc/lib/wii\libogc.a(es.o)
                0x8002e9f4                ES_GetNumTitles
 .text.ES_GetTicketViews
                0x8002ea70       0xa0 c:/devkitPro/libogc/lib/wii\libogc.a(es.o)
                0x8002ea70                ES_GetTicketViews
 .text.ES_GetNumTicketViews
                0x8002eb10       0x88 c:/devkitPro/libogc/lib/wii\libogc.a(es.o)
                0x8002eb10                ES_GetNumTicketViews
 .text.ES_GetTitleID
                0x8002eb98       0x84 c:/devkitPro/libogc/lib/wii\libogc.a(es.o)
                0x8002eb98                ES_GetTitleID
 .text.ES_LaunchTitle
                0x8002ec1c       0xb8 c:/devkitPro/libogc/lib/wii\libogc.a(es.o)
                0x8002ec1c                ES_LaunchTitle
 .text.__ES_Close
                0x8002ecd4       0x7c c:/devkitPro/libogc/lib/wii\libogc.a(es.o)
                0x8002ecd4                __ES_Close
 .text.__ES_Init
                0x8002ed50       0x84 c:/devkitPro/libogc/lib/wii\libogc.a(es.o)
                0x8002ed50                __ES_Init
 .text._ES_decodepath
                0x8002edd4      0x33c c:/devkitPro/libogc/lib/wii\libogc.a(es.o)
 .text._ES_fillstat
                0x8002f110      0x164 c:/devkitPro/libogc/lib/wii\libogc.a(es.o)
 .text._ES_stat_r
                0x8002f274       0x64 c:/devkitPro/libogc/lib/wii\libogc.a(es.o)
 .text._ES_fstat_r
                0x8002f2d8       0x8c c:/devkitPro/libogc/lib/wii\libogc.a(es.o)
 .text._ES_seek_r
                0x8002f364       0xc0 c:/devkitPro/libogc/lib/wii\libogc.a(es.o)
 .text._ES_read_r
                0x8002f424      0x1a8 c:/devkitPro/libogc/lib/wii\libogc.a(es.o)
 .text._ES_close_r
                0x8002f5cc       0x8c c:/devkitPro/libogc/lib/wii\libogc.a(es.o)
 .text._ES_open_r
                0x8002f658       0xd0 c:/devkitPro/libogc/lib/wii\libogc.a(es.o)
 .text.__usb_bulk_messageCB
                0x8002f728       0xc8 c:/devkitPro/libogc/lib/wii\libogc.a(usb.o)
 .text.__usb_control_messageCB
                0x8002f7f0      0x118 c:/devkitPro/libogc/lib/wii\libogc.a(usb.o)
 .text.USB_CloseDeviceAsync
                0x8002f908       0x48 c:/devkitPro/libogc/lib/wii\libogc.a(usb.o)
                0x8002f908                USB_CloseDeviceAsync
 .text.USB_OpenDevice
                0x8002f950       0xd4 c:/devkitPro/libogc/lib/wii\libogc.a(usb.o)
                0x8002f950                USB_OpenDevice
 .text.USB_Initialize
                0x8002fa24       0x7c c:/devkitPro/libogc/lib/wii\libogc.a(usb.o)
                0x8002fa24                USB_Initialize
 .text.USB_WriteBlkMsgAsync
                0x8002faa0      0x1f4 c:/devkitPro/libogc/lib/wii\libogc.a(usb.o)
                0x8002faa0                USB_WriteBlkMsgAsync
 .text.USB_ReadBlkMsgAsync
                0x8002fc94      0x1f4 c:/devkitPro/libogc/lib/wii\libogc.a(usb.o)
                0x8002fc94                USB_ReadBlkMsgAsync
 .text.USB_ReadIntrMsgAsync
                0x8002fe88      0x1f4 c:/devkitPro/libogc/lib/wii\libogc.a(usb.o)
                0x8002fe88                USB_ReadIntrMsgAsync
 .text.USB_WriteCtrlMsgAsync
                0x8003007c      0x384 c:/devkitPro/libogc/lib/wii\libogc.a(usb.o)
                0x8003007c                USB_WriteCtrlMsgAsync
 .text.inet_aton
                0x80030400      0x24c c:/devkitPro/libogc/lib/wii\libogc.a(network_common.o)
                0x80030400                inet_aton
 .text.inet_addr
                0x8003064c       0x34 c:/devkitPro/libogc/lib/wii\libogc.a(network_common.o)
                0x8003064c                inet_addr
 .text.inet_ntoa
                0x80030680       0xec c:/devkitPro/libogc/lib/wii\libogc.a(network_common.o)
                0x80030680                inet_ntoa
 .text.__CheckARGV
                0x8003076c       0x9c c:/devkitPro/libogc/lib/wii\libogc.a(argv.o)
                0x8003076c                __CheckARGV
 .text._net_convert_error
                0x80030808       0x3c c:/devkitPro/libogc/lib/wii\libogc.a(network_wii.o)
 .text.net_close
                0x80030844       0x60 c:/devkitPro/libogc/lib/wii\libogc.a(network_wii.o)
                0x80030844                net_close
 .text.net_socket
                0x800308a4       0x7c c:/devkitPro/libogc/lib/wii\libogc.a(network_wii.o)
                0x800308a4                net_socket
 .text.net_connect
                0x80030920       0xec c:/devkitPro/libogc/lib/wii\libogc.a(network_wii.o)
                0x80030920                net_connect
 .text.net_recvfrom
                0x80030a0c      0x1ac c:/devkitPro/libogc/lib/wii\libogc.a(network_wii.o)
                0x80030a0c                net_recvfrom
 .text.net_read
                0x80030bb8       0x10 c:/devkitPro/libogc/lib/wii\libogc.a(network_wii.o)
                0x80030bb8                net_read
 .text.net_sendto
                0x80030bc8      0x1a4 c:/devkitPro/libogc/lib/wii\libogc.a(network_wii.o)
                0x80030bc8                net_sendto
 .text.net_send
                0x80030d6c        0xc c:/devkitPro/libogc/lib/wii\libogc.a(network_wii.o)
                0x80030d6c                net_send
 .text.net_write
                0x80030d78        0x8 c:/devkitPro/libogc/lib/wii\libogc.a(network_wii.o)
                0x80030d78                net_write
 .text.net_gethostip
                0x80030d80       0xa0 c:/devkitPro/libogc/lib/wii\libogc.a(network_wii.o)
                0x80030d80                net_gethostip
 .text.NCDGetLinkStatus
                0x80030e20       0xd4 c:/devkitPro/libogc/lib/wii\libogc.a(network_wii.o)
                0x80030e20                NCDGetLinkStatus
 .text.net_init
                0x80030ef4      0x178 c:/devkitPro/libogc/lib/wii\libogc.a(network_wii.o)
                0x80030ef4                net_init
 .text.__CONF_DecryptTextBuffer
                0x8003106c       0x48 c:/devkitPro/libogc/lib/wii\libogc.a(conf.o)
                0x8003106c                __CONF_DecryptTextBuffer
 .text.__CONF_Find
                0x800310b4      0x118 c:/devkitPro/libogc/lib/wii\libogc.a(conf.o)
                0x800310b4                __CONF_Find
 .text.CONF_GetLength
                0x800311cc       0xd4 c:/devkitPro/libogc/lib/wii\libogc.a(conf.o)
                0x800311cc                CONF_GetLength
 .text.CONF_Get
                0x800312a0      0x13c c:/devkitPro/libogc/lib/wii\libogc.a(conf.o)
                0x800312a0                CONF_Get
 .text.CONF_GetPadDevices
                0x800313dc       0x48 c:/devkitPro/libogc/lib/wii\libogc.a(conf.o)
                0x800313dc                CONF_GetPadDevices
 .text.CONF_GetDisplayOffsetH
                0x80031424       0x64 c:/devkitPro/libogc/lib/wii\libogc.a(conf.o)
                0x80031424                CONF_GetDisplayOffsetH
 .text.CONF_GetSensorBarPosition
                0x80031488       0x58 c:/devkitPro/libogc/lib/wii\libogc.a(conf.o)
                0x80031488                CONF_GetSensorBarPosition
 .text.CONF_GetIRSensitivity
                0x800314e0       0x58 c:/devkitPro/libogc/lib/wii\libogc.a(conf.o)
                0x800314e0                CONF_GetIRSensitivity
 .text.CONF_GetEuRGB60
                0x80031538       0x58 c:/devkitPro/libogc/lib/wii\libogc.a(conf.o)
                0x80031538                CONF_GetEuRGB60
 .text.CONF_GetProgressiveScan
                0x80031590       0x58 c:/devkitPro/libogc/lib/wii\libogc.a(conf.o)
                0x80031590                CONF_GetProgressiveScan
 .text.CONF_GetIdleLedMode
                0x800315e8       0x5c c:/devkitPro/libogc/lib/wii\libogc.a(conf.o)
                0x800315e8                CONF_GetIdleLedMode
 .text.CONF_GetShutdownMode
                0x80031644       0x5c c:/devkitPro/libogc/lib/wii\libogc.a(conf.o)
                0x80031644                CONF_GetShutdownMode
 .text.__CONF_GetTxt
                0x800316a0      0x19c c:/devkitPro/libogc/lib/wii\libogc.a(conf.o)
                0x800316a0                __CONF_GetTxt
 .text.CONF_GetVideo
                0x8003183c       0xac c:/devkitPro/libogc/lib/wii\libogc.a(conf.o)
                0x8003183c                CONF_GetVideo
 .text.CONF_Init
                0x800318e8      0x138 c:/devkitPro/libogc/lib/wii\libogc.a(conf.o)
                0x800318e8                CONF_Init
 .text.__CalcChecksum
                0x80031a20       0x3c c:/devkitPro/libogc/lib/wii\libogc.a(wiilaunch.o)
 .text.__SetChecksum
                0x80031a5c       0x30 c:/devkitPro/libogc/lib/wii\libogc.a(wiilaunch.o)
 .text.__ValidChecksum
                0x80031a8c       0x38 c:/devkitPro/libogc/lib/wii\libogc.a(wiilaunch.o)
 .text.__WII_WriteStateFlags
                0x80031ac4       0x9c c:/devkitPro/libogc/lib/wii\libogc.a(wiilaunch.o)
 .text.WII_LaunchTitle
                0x80031b60       0xcc c:/devkitPro/libogc/lib/wii\libogc.a(wiilaunch.o)
                0x80031b60                WII_LaunchTitle
 .text.WII_ReturnToMenu
                0x80031c2c       0x74 c:/devkitPro/libogc/lib/wii\libogc.a(wiilaunch.o)
                0x80031c2c                WII_ReturnToMenu
 .text.WII_Initialize
                0x80031ca0      0x204 c:/devkitPro/libogc/lib/wii\libogc.a(wiilaunch.o)
                0x80031ca0                WII_Initialize
 .text.__lwp_priority_init
                0x80031ea4       0x34 c:/devkitPro/libogc/lib/wii\libogc.a(lwp_priority.o)
                0x80031ea4                __lwp_priority_init
 .text.__lwp_threadqueue_extractpriority
                0x80031ed8      0x16c c:/devkitPro/libogc/lib/wii\libogc.a(lwp_threadq.o)
                0x80031ed8                __lwp_threadqueue_extractpriority
 .text.__lwp_threadqueue_extractfifo
                0x80032044       0xe8 c:/devkitPro/libogc/lib/wii\libogc.a(lwp_threadq.o)
                0x80032044                __lwp_threadqueue_extractfifo
 .text.__lwp_threadqueue_extract
                0x8003212c       0x1c c:/devkitPro/libogc/lib/wii\libogc.a(lwp_threadq.o)
                0x8003212c                __lwp_threadqueue_extract
 .text.__lwp_threadqueue_extractproxy
                0x80032148       0x3c c:/devkitPro/libogc/lib/wii\libogc.a(lwp_threadq.o)
                0x80032148                __lwp_threadqueue_extractproxy
 .text.__lwp_threadqueue_timeout
                0x80032184       0x8c c:/devkitPro/libogc/lib/wii\libogc.a(lwp_threadq.o)
 .text.__lwp_threadqueue_dequeuepriority
                0x80032210      0x210 c:/devkitPro/libogc/lib/wii\libogc.a(lwp_threadq.o)
                0x80032210                __lwp_threadqueue_dequeuepriority
 .text.__lwp_threadqueue_enqueuepriority
                0x80032420      0x3b8 c:/devkitPro/libogc/lib/wii\libogc.a(lwp_threadq.o)
                0x80032420                __lwp_threadqueue_enqueuepriority
 .text.__lwp_threadqueue_dequeuefifo
                0x800327d8      0x14c c:/devkitPro/libogc/lib/wii\libogc.a(lwp_threadq.o)
                0x800327d8                __lwp_threadqueue_dequeuefifo
 .text.__lwp_threadqueue_dequeue
                0x80032924       0x24 c:/devkitPro/libogc/lib/wii\libogc.a(lwp_threadq.o)
                0x80032924                __lwp_threadqueue_dequeue
 .text.__lwp_threadqueue_flush
                0x80032948       0x4c c:/devkitPro/libogc/lib/wii\libogc.a(lwp_threadq.o)
                0x80032948                __lwp_threadqueue_flush
 .text.__lwp_threadqueue_enqueuefifo
                0x80032994      0x128 c:/devkitPro/libogc/lib/wii\libogc.a(lwp_threadq.o)
                0x80032994                __lwp_threadqueue_enqueuefifo
 .text.__lwp_threadqueue_enqueue
                0x80032abc      0x13c c:/devkitPro/libogc/lib/wii\libogc.a(lwp_threadq.o)
                0x80032abc                __lwp_threadqueue_enqueue
 .text.__lwp_threadqueue_init
                0x80032bf8       0x88 c:/devkitPro/libogc/lib/wii\libogc.a(lwp_threadq.o)
                0x80032bf8                __lwp_threadqueue_init
 .text.__lwp_mutex_flush
                0x80032c80       0x20 c:/devkitPro/libogc/lib/wii\libogc.a(lwp_mutex.o)
                0x80032c80                __lwp_mutex_flush
 .text.__lwp_mutex_initialize
                0x80032ca0       0xe8 c:/devkitPro/libogc/lib/wii\libogc.a(lwp_mutex.o)
                0x80032ca0                __lwp_mutex_initialize
 .text.__lwp_mutex_seize_irq_blocking
                0x80032d88       0xec c:/devkitPro/libogc/lib/wii\libogc.a(lwp_mutex.o)
                0x80032d88                __lwp_mutex_seize_irq_blocking
 .text.__lwp_mutex_surrender
                0x80032e74      0x150 c:/devkitPro/libogc/lib/wii\libogc.a(lwp_mutex.o)
                0x80032e74                __lwp_mutex_surrender
 .text.__exception_sethandler
                0x80032fc4       0x14 c:/devkitPro/libogc/lib/wii\libogc.a(exception.o)
                0x80032fc4                __exception_sethandler
 .text.__libogc_exit
                0x80032fd8       0x38 c:/devkitPro/libogc/lib/wii\libogc.a(exception.o)
                0x80032fd8                __libogc_exit
 .text.c_default_exceptionhandler
                0x80033010      0x3e8 c:/devkitPro/libogc/lib/wii\libogc.a(exception.o)
                0x80033010                c_default_exceptionhandler
 .text.__exception_load
                0x800333f8       0xa4 c:/devkitPro/libogc/lib/wii\libogc.a(exception.o)
                0x800333f8                __exception_load
 .text.__exception_init
                0x8003349c       0xf4 c:/devkitPro/libogc/lib/wii\libogc.a(exception.o)
                0x8003349c                __exception_init
 .text.__systemcall_init
                0x80033590       0x20 c:/devkitPro/libogc/lib/wii\libogc.a(exception.o)
                0x80033590                __systemcall_init
 .text.__lwp_sema_init
                0x800335b0       0x30 c:/devkitPro/libogc/lib/wii\libogc.a(semaphore.o)
                0x800335b0                __lwp_sema_init
 .text.EXI_Sync
                0x800335e0       0xec c:/devkitPro/libogc/lib/wii\libogc.a(exi.o)
                0x800335e0                EXI_Sync
 .text.__exi_irq_handler
                0x800336cc       0x74 c:/devkitPro/libogc/lib/wii\libogc.a(exi.o)
 .text.EXI_Detach
                0x80033740       0xb0 c:/devkitPro/libogc/lib/wii\libogc.a(exi.o)
                0x80033740                EXI_Detach
 .text.__exi_probe
                0x800337f0      0x21c c:/devkitPro/libogc/lib/wii\libogc.a(exi.o)
 .text.EXI_Select
                0x80033a0c      0x1d8 c:/devkitPro/libogc/lib/wii\libogc.a(exi.o)
                0x80033a0c                EXI_Select
 .text.EXI_Imm  0x80033be4      0x1b0 c:/devkitPro/libogc/lib/wii\libogc.a(exi.o)
                0x80033be4                EXI_Imm
 .text.EXI_ImmEx
                0x80033d94       0xd4 c:/devkitPro/libogc/lib/wii\libogc.a(exi.o)
                0x80033d94                EXI_ImmEx
 .text.EXI_Deselect
                0x80033e68      0x14c c:/devkitPro/libogc/lib/wii\libogc.a(exi.o)
                0x80033e68                EXI_Deselect
 .text.__exi_attach
                0x80033fb4      0x11c c:/devkitPro/libogc/lib/wii\libogc.a(exi.o)
 .text.EXI_Lock
                0x800340d0      0x210 c:/devkitPro/libogc/lib/wii\libogc.a(exi.o)
                0x800340d0                EXI_Lock
 .text.EXI_Dma  0x800342e0      0x164 c:/devkitPro/libogc/lib/wii\libogc.a(exi.o)
                0x800342e0                EXI_Dma
 .text.__ext_irq_handler
                0x80034444       0xbc c:/devkitPro/libogc/lib/wii\libogc.a(exi.o)
 .text.__tc_irq_handler
                0x80034500      0x11c c:/devkitPro/libogc/lib/wii\libogc.a(exi.o)
 .text.EXI_Unlock
                0x8003461c      0x26c c:/devkitPro/libogc/lib/wii\libogc.a(exi.o)
                0x8003461c                EXI_Unlock
 .text.EXI_GetID
                0x80034888      0x248 c:/devkitPro/libogc/lib/wii\libogc.a(exi.o)
                0x80034888                EXI_GetID
 .text.EXI_ProbeReset
                0x80034ad0       0x7c c:/devkitPro/libogc/lib/wii\libogc.a(exi.o)
                0x80034ad0                EXI_ProbeReset
 .text.__exi_init
                0x80034b4c      0x18c c:/devkitPro/libogc/lib/wii\libogc.a(exi.o)
                0x80034b4c                __exi_init
 .text.__unlocked_handler
                0x80034cd8       0x28 c:/devkitPro/libogc/lib/wii\libogc.a(exi.o)
 .text.LWP_MutexInit
                0x80034d00      0x10c c:/devkitPro/libogc/lib/wii\libogc.a(mutex.o)
                0x80034d00                LWP_MutexInit
 .text.__lwp_mutex_init
                0x80034e0c       0x30 c:/devkitPro/libogc/lib/wii\libogc.a(mutex.o)
                0x80034e0c                __lwp_mutex_init
 .text.LWP_MutexDestroy
                0x80034e3c      0x108 c:/devkitPro/libogc/lib/wii\libogc.a(mutex.o)
                0x80034e3c                LWP_MutexDestroy
 .text.__lwp_mutex_locksupp
                0x80034f44      0x288 c:/devkitPro/libogc/lib/wii\libogc.a(mutex.o)
 .text.LWP_MutexLock
                0x800351cc        0xc c:/devkitPro/libogc/lib/wii\libogc.a(mutex.o)
                0x800351cc                LWP_MutexLock
 .text.LWP_MutexUnlock
                0x800351d8       0x90 c:/devkitPro/libogc/lib/wii\libogc.a(mutex.o)
                0x800351d8                LWP_MutexUnlock
 .text.skip_atoi
                0x80035268       0x4c c:/devkitPro/libogc/lib/wii\libogc.a(kprintf.o)
 .text.number   0x800352b4      0x2c0 c:/devkitPro/libogc/lib/wii\libogc.a(kprintf.o)
 .text.kvsprintf
                0x80035574      0x684 c:/devkitPro/libogc/lib/wii\libogc.a(kprintf.o)
                0x80035574                kvsprintf
 .text.kprintf  0x80035bf8       0xac c:/devkitPro/libogc/lib/wii\libogc.a(kprintf.o)
                0x80035bf8                kprintf
 *(.gnu.warning)
 *(.gnu.linkonce.t.*)
                0x80035cc0                . = ALIGN (0x20)
 *fill*         0x80035ca4       0x1c 00000000

.fini           0x80035cc0       0x20
 *(.fini)
 .fini          0x80035cc0        0xc c:/devkitpro/devkitppc/bin/../lib/gcc/powerpc-gekko/4.2.4/ecrti.o
                0x80035cc0                __fini
 .fini          0x80035ccc        0x4 c:/devkitpro/devkitppc/bin/../lib/gcc/powerpc-gekko/4.2.4/crtbegin.o
 .fini          0x80035cd0       0x10 c:/devkitpro/devkitppc/bin/../lib/gcc/powerpc-gekko/4.2.4/ecrtn.o
                0x80035ce0                . = ALIGN (0x20)
                0x80035ce0                PROVIDE (__etext, .)
                0x80035ce0                PROVIDE (_etext, .)
                0x80035ce0                PROVIDE (etext, .)

.rodata         0x80035ce0     0x2ac4
 *(.rodata)
 .rodata        0x80035ce0       0x14 helloworld.o
 .rodata        0x80035cf4      0x400 irc.o
 .rodata        0x800360f4      0x100 tcpflood.o
 .rodata        0x800361f4       0x3a c:/devkitPro/libogc/lib/wii\libwiiuse.a(ir.o)
 *fill*         0x8003622e        0x2 00
 .rodata        0x80036230       0x24 c:/devkitPro/libogc/lib/wii\libogc.a(newlibc.o)
 *fill*         0x80036254        0x4 00
 .rodata        0x80036258       0x20 c:/devkitpro/devkitppc/bin/../lib/gcc/powerpc-gekko/4.2.4/../../../../powerpc-gekko/lib\libm.a(lib_a-s_atangent.o)
 .rodata        0x80036278       0x10 c:/devkitpro/devkitppc/bin/../lib/gcc/powerpc-gekko/4.2.4/../../../../powerpc-gekko/lib\libm.a(lib_a-sf_atangent.o)
 .rodata        0x80036288       0x5c c:/devkitpro/devkitppc/bin/../lib/gcc/powerpc-gekko/4.2.4/../../../../powerpc-gekko/lib\libsysbase.a(iosupport.o)
                0x80036288                dotab_stdnull
 .rodata        0x800362e4      0x101 c:/devkitpro/devkitppc/bin/../lib/gcc/powerpc-gekko/4.2.4/../../../../powerpc-gekko/lib\libc.a(lib_a-ctype_.o)
                0x800362e4                _ctype_
 *fill*         0x800363e5        0x3 00
 .rodata        0x800363e8      0x21c c:/devkitpro/devkitppc/bin/../lib/gcc/powerpc-gekko/4.2.4/../../../../powerpc-gekko/lib\libc.a(lib_a-strerror.o)
 .rodata        0x80036604      0x184 c:/devkitpro/devkitppc/bin/../lib/gcc/powerpc-gekko/4.2.4/../../../../powerpc-gekko/lib\libc.a(lib_a-vfprintf.o)
 .rodata        0x80036788       0x18 c:/devkitpro/devkitppc/bin/../lib/gcc/powerpc-gekko/4.2.4/../../../../powerpc-gekko/lib\libc.a(lib_a-dtoa.o)
 .rodata        0x800367a0       0xb8 c:/devkitpro/devkitppc/bin/../lib/gcc/powerpc-gekko/4.2.4/../../../../powerpc-gekko/lib\libc.a(lib_a-locale.o)
 .rodata        0x80036858       0xa8 c:/devkitpro/devkitppc/bin/../lib/gcc/powerpc-gekko/4.2.4/../../../../powerpc-gekko/lib\libc.a(lib_a-mbtowc_r.o)
 .rodata        0x80036900      0x128 c:/devkitpro/devkitppc/bin/../lib/gcc/powerpc-gekko/4.2.4/../../../../powerpc-gekko/lib\libc.a(lib_a-mprec.o)
                0x80036a00                __mprec_tinytens
                0x80036900                __mprec_tens
                0x800369d8                __mprec_bigtens
 *(.rodata.*)
 .rodata.str1.4
                0x80036a28       0x17 helloworld.o
 *fill*         0x80036a3f        0x1 00
 .rodata.cst4   0x80036a40        0xc irc.o
 .rodata.str1.4
                0x80036a4c      0x26e irc.o
                                0x276 (size before relaxing)
 *fill*         0x80036cba        0x2 00
 .rodata.str1.4
                0x80036cbc       0x63 tcpflood.o
                                 0xff (size before relaxing)
 *fill*         0x80036d1f        0x1 00
 .rodata.cst4   0x80036d20       0x10 c:/devkitPro/libogc/lib/wii\libwiiuse.a(wpad.o)
 .rodata.cst4   0x80036d30       0x20 c:/devkitPro/libogc/lib/wii\libwiiuse.a(dynamics.o)
                                 0x28 (size before relaxing)
 .rodata.wiiuse_set_ir_sensitivity
                0x80036d50       0x18 c:/devkitPro/libogc/lib/wii\libwiiuse.a(ir.o)
 .rodata.cst4   0x80036d68       0x70 c:/devkitPro/libogc/lib/wii\libwiiuse.a(ir.o)
                                 0x8c (size before relaxing)
 .rodata.str1.4
                0x80036dd8       0x41 c:/devkitPro/libogc/lib/wii\libwiiuse.a(ir.o)
 *fill*         0x80036e19        0x3 00
 .rodata.cst4   0x80036e1c        0x4 c:/devkitPro/libogc/lib/wii\libwiiuse.a(wiiuse.o)
 .rodata.parse_event
                0x80036e20       0x60 c:/devkitPro/libogc/lib/wii\libwiiuse.a(events.o)
 .rodata.str1.4
                0x80036e80       0x39 c:/devkitPro/libogc/lib/wii\libwiiuse.a(events.o)
 *fill*         0x80036eb9        0x3 00
 .rodata.str1.4
                0x80036ebc       0x70 c:/devkitPro/libogc/lib/wii\libbte.a(bte.o)
                                 0x74 (size before relaxing)
 .rodata.hci_event_handler
                0x80036f2c       0x64 c:/devkitPro/libogc/lib/wii\libbte.a(hci.o)
 .rodata.str1.4
                0x80036f90       0x28 c:/devkitPro/libogc/lib/wii\libbte.a(hci.o)
 .rodata.l2cap_process_sig
                0x80036fb8       0x28 c:/devkitPro/libogc/lib/wii\libbte.a(l2cap.o)
 .rodata.str1.4
                0x80036fe0        0x8 c:/devkitPro/libogc/lib/wii\libbte.a(physbusif.o)
 .rodata.__console_write
                0x80036fe8       0xec c:/devkitPro/libogc/lib/wii\libogc.a(console.o)
 .rodata.color_table
                0x800370d4       0x40 c:/devkitPro/libogc/lib/wii\libogc.a(console.o)
                0x800370d4                color_table
 .rodata.dotab_stdout
                0x80037114       0x5c c:/devkitPro/libogc/lib/wii\libogc.a(console.o)
                0x80037114                dotab_stdout
 .rodata.str1.4
                0x80037170        0x7 c:/devkitPro/libogc/lib/wii\libogc.a(console.o)
 *fill*         0x80037177        0x1 00
 .rodata._irqPrio
                0x80037178       0x30 c:/devkitPro/libogc/lib/wii\libogc.a(irq.o)
 .rodata.__gettiming
                0x800371a8       0x58 c:/devkitPro/libogc/lib/wii\libogc.a(video.o)
 .rodata.C.34.7335
                0x80037200       0x21 c:/devkitPro/libogc/lib/wii\libogc.a(video.o)
 *fill*         0x80037221        0x1 00
 .rodata.video_timing
                0x80037222      0x17c c:/devkitPro/libogc/lib/wii\libogc.a(video.o)
 *fill*         0x8003739e        0x2 00
 .rodata.cst4   0x800373a0        0x4 c:/devkitPro/libogc/lib/wii\libogc.a(pad.o)
 .rodata.SYS_ResetSystem
                0x800373a4       0x1c c:/devkitPro/libogc/lib/wii\libogc.a(system.o)
 .rodata.str1.4
                0x800373c0       0x65 c:/devkitPro/libogc/lib/wii\libogc.a(system.o)
 *fill*         0x80037425        0x3 00
 .rodata.__ios_ioctlvformat_parse
                0x80037428      0x128 c:/devkitPro/libogc/lib/wii\libogc.a(ipc.o)
 .rodata.str1.4
                0x80037550        0x2 c:/devkitPro/libogc/lib/wii\libogc.a(newlibc.o)
 *fill*         0x80037552        0x2 00
 .rodata.str1.4
                0x80037554       0x40 c:/devkitPro/libogc/lib/wii\libogc.a(ios.o)
 .rodata.dotab_es
                0x80037594       0x5c c:/devkitPro/libogc/lib/wii\libogc.a(es.o)
 .rodata.str1.4
                0x800375f0       0x83 c:/devkitPro/libogc/lib/wii\libogc.a(es.o)
                                 0x87 (size before relaxing)
 *fill*         0x80037673        0x1 00
 .rodata.str1.4
                0x80037674       0x1a c:/devkitPro/libogc/lib/wii\libogc.a(usb.o)
 *fill*         0x8003768e        0x2 00
 .rodata._net_error_code_map
                0x80037690       0x3d c:/devkitPro/libogc/lib/wii\libogc.a(network_wii.o)
 .rodata.str1.4
                0x00000000       0x1a c:/devkitPro/libogc/lib/wii\libogc.a(network_wii.o)
                                  0xf (size before relaxing)
 *fill*         0x800376cd        0x3 00
 .rodata.CONF_GetLength
                0x800376d0       0x20 c:/devkitPro/libogc/lib/wii\libogc.a(conf.o)
 .rodata.CONF_Get
                0x800376f0       0x20 c:/devkitPro/libogc/lib/wii\libogc.a(conf.o)
 *fill*         0x80037710       0x10 00
 .rodata.__conf_file
                0x80037720       0x15 c:/devkitPro/libogc/lib/wii\libogc.a(conf.o)
 *fill*         0x80037735        0x3 00
 .rodata.str1.4
                0x80037738      0x109 c:/devkitPro/libogc/lib/wii\libogc.a(conf.o)
                                0x111 (size before relaxing)
 *fill*         0x80037841       0x1f 00
 .rodata.__conf_txt_file
                0x80037860       0x2a c:/devkitPro/libogc/lib/wii\libogc.a(conf.o)
 *fill*         0x8003788a        0x2 00
 .rodata.exception_location
                0x8003788c       0x3c c:/devkitPro/libogc/lib/wii\libogc.a(exception.o)
 .rodata.str1.4
                0x800378c8      0x2e8 c:/devkitPro/libogc/lib/wii\libogc.a(exception.o)
                                0x2ec (size before relaxing)
 .rodata.exception_name
                0x80037bb0       0x3c c:/devkitPro/libogc/lib/wii\libogc.a(exception.o)
 .rodata.kvsprintf
                0x80037bec      0x194 c:/devkitPro/libogc/lib/wii\libogc.a(kprintf.o)
 .rodata.str1.4
                0x80037d80       0x57 c:/devkitPro/libogc/lib/wii\libogc.a(kprintf.o)
 *fill*         0x80037dd7        0x1 00
 .rodata.cst8   0x80037dd8        0x8 c:/devkitpro/devkitppc/bin/../lib/gcc/powerpc-gekko/4.2.4/../../../../powerpc-gekko/lib\libm.a(lib_a-s_atan2.o)
 .rodata.cst4   0x00000000        0x8 c:/devkitpro/devkitppc/bin/../lib/gcc/powerpc-gekko/4.2.4/../../../../powerpc-gekko/lib\libm.a(lib_a-s_atangent.o)
 .rodata.cst8   0x80037de0       0x68 c:/devkitpro/devkitppc/bin/../lib/gcc/powerpc-gekko/4.2.4/../../../../powerpc-gekko/lib\libm.a(lib_a-s_atangent.o)
                                 0x70 (size before relaxing)
 .rodata.cst8   0x00000000        0x8 c:/devkitpro/devkitppc/bin/../lib/gcc/powerpc-gekko/4.2.4/../../../../powerpc-gekko/lib\libm.a(lib_a-s_fabs.o)
 .rodata.cst8   0x00000000        0x8 c:/devkitpro/devkitppc/bin/../lib/gcc/powerpc-gekko/4.2.4/../../../../powerpc-gekko/lib\libm.a(lib_a-s_numtest.o)
 .rodata.cst4   0x00000000        0x8 c:/devkitpro/devkitppc/bin/../lib/gcc/powerpc-gekko/4.2.4/../../../../powerpc-gekko/lib\libm.a(lib_a-s_sine.o)
 .rodata.cst8   0x80037e48       0x50 c:/devkitpro/devkitppc/bin/../lib/gcc/powerpc-gekko/4.2.4/../../../../powerpc-gekko/lib\libm.a(lib_a-s_sine.o)
                                 0x60 (size before relaxing)
 .rodata.cst4   0x00000000        0x4 c:/devkitpro/devkitppc/bin/../lib/gcc/powerpc-gekko/4.2.4/../../../../powerpc-gekko/lib\libm.a(lib_a-s_sqrt.o)
 .rodata.cst8   0x80037e98       0x18 c:/devkitpro/devkitppc/bin/../lib/gcc/powerpc-gekko/4.2.4/../../../../powerpc-gekko/lib\libm.a(lib_a-s_sqrt.o)
                                 0x20 (size before relaxing)
 .rodata.cst4   0x80037eb0        0x4 c:/devkitpro/devkitppc/bin/../lib/gcc/powerpc-gekko/4.2.4/../../../../powerpc-gekko/lib\libm.a(lib_a-sf_atan.o)
                                  0x8 (size before relaxing)
 .rodata.cst4   0x00000000        0x4 c:/devkitpro/devkitppc/bin/../lib/gcc/powerpc-gekko/4.2.4/../../../../powerpc-gekko/lib\libm.a(lib_a-sf_atan2.o)
 .rodata.cst4   0x80037eb4       0x18 c:/devkitpro/devkitppc/bin/../lib/gcc/powerpc-gekko/4.2.4/../../../../powerpc-gekko/lib\libm.a(lib_a-sf_atangent.o)
                                 0x28 (size before relaxing)
 .rodata.cst8   0x00000000        0x8 c:/devkitpro/devkitppc/bin/../lib/gcc/powerpc-gekko/4.2.4/../../../../powerpc-gekko/lib\libm.a(lib_a-sf_atangent.o)
 .rodata.cst4   0x00000000        0x4 c:/devkitpro/devkitppc/bin/../lib/gcc/powerpc-gekko/4.2.4/../../../../powerpc-gekko/lib\libm.a(lib_a-sf_fabs.o)
 .rodata.cst4   0x00000000        0x4 c:/devkitpro/devkitppc/bin/../lib/gcc/powerpc-gekko/4.2.4/../../../../powerpc-gekko/lib\libm.a(lib_a-sf_numtest.o)
 .rodata.cst4   0x80037ecc       0x18 c:/devkitpro/devkitppc/bin/../lib/gcc/powerpc-gekko/4.2.4/../../../../powerpc-gekko/lib\libm.a(lib_a-sf_sine.o)
                                 0x28 (size before relaxing)
 .rodata.cst8   0x00000000        0x8 c:/devkitpro/devkitppc/bin/../lib/gcc/powerpc-gekko/4.2.4/../../../../powerpc-gekko/lib\libm.a(lib_a-sf_sine.o)
 .rodata.cst4   0x00000000        0x8 c:/devkitpro/devkitppc/bin/../lib/gcc/powerpc-gekko/4.2.4/../../../../powerpc-gekko/lib\libm.a(lib_a-sf_sqrt.o)
 .rodata.cst8   0x00000000       0x18 c:/devkitpro/devkitppc/bin/../lib/gcc/powerpc-gekko/4.2.4/../../../../powerpc-gekko/lib\libm.a(lib_a-sf_sqrt.o)
 .rodata.cst4   0x00000000        0x4 c:/devkitpro/devkitppc/bin/../lib/gcc/powerpc-gekko/4.2.4/../../../../powerpc-gekko/lib\libm.a(lib_a-sf_ldexp.o)
 .rodata.str1.4
                0x80037ee4        0xf c:/devkitpro/devkitppc/bin/../lib/gcc/powerpc-gekko/4.2.4/../../../../powerpc-gekko/lib\libsysbase.a(abort.o)
 *fill*         0x80037ef3        0x1 00
 .rodata.str1.4
                0x80037ef4        0x8 c:/devkitpro/devkitppc/bin/../lib/gcc/powerpc-gekko/4.2.4/../../../../powerpc-gekko/lib\libsysbase.a(iosupport.o)
 .rodata.str1.4
                0x00000000        0x2 c:/devkitpro/devkitppc/bin/../lib/gcc/powerpc-gekko/4.2.4/../../../../powerpc-gekko/lib\libc.a(lib_a-impure.o)
 .rodata.str1.4
                0x00000000        0x8 c:/devkitpro/devkitppc/bin/../lib/gcc/powerpc-gekko/4.2.4/../../../../powerpc-gekko/lib\libc.a(lib_a-puts.o)
                                  0x2 (size before relaxing)
 .rodata.str1.4
                0x80037efc      0x7a2 c:/devkitpro/devkitppc/bin/../lib/gcc/powerpc-gekko/4.2.4/../../../../powerpc-gekko/lib\libc.a(lib_a-strerror.o)
                                0x7a5 (size before relaxing)
 *fill*         0x8003869e        0x2 00
 .rodata.cst4   0x800386a0       0x18 c:/devkitpro/devkitppc/bin/../lib/gcc/powerpc-gekko/4.2.4/../../../../powerpc-gekko/lib\libc.a(lib_a-vfprintf.o)
 .rodata.cst8   0x00000000        0x8 c:/devkitpro/devkitppc/bin/../lib/gcc/powerpc-gekko/4.2.4/../../../../powerpc-gekko/lib\libc.a(lib_a-vfprintf.o)
 .rodata.str1.4
                0x800386b8       0x5a c:/devkitpro/devkitppc/bin/../lib/gcc/powerpc-gekko/4.2.4/../../../../powerpc-gekko/lib\libc.a(lib_a-vfprintf.o)
                                 0x5e (size before relaxing)
 *fill*         0x80038712        0x2 00
 .rodata.str1.4
                0x80038714       0x1e c:/devkitpro/devkitppc/bin/../lib/gcc/powerpc-gekko/4.2.4/../../../../powerpc-gekko/lib\libc.a(lib_a-wctomb_r.o)
 *fill*         0x80038732        0x2 00
 .rodata.cst4   0x80038734        0xc c:/devkitpro/devkitppc/bin/../lib/gcc/powerpc-gekko/4.2.4/../../../../powerpc-gekko/lib\libc.a(lib_a-dtoa.o)
                                 0x20 (size before relaxing)
 .rodata.cst8   0x80038740       0x18 c:/devkitpro/devkitppc/bin/../lib/gcc/powerpc-gekko/4.2.4/../../../../powerpc-gekko/lib\libc.a(lib_a-dtoa.o)
                                 0x20 (size before relaxing)
 .rodata.str1.4
                0x80038758       0x10 c:/devkitpro/devkitppc/bin/../lib/gcc/powerpc-gekko/4.2.4/../../../../powerpc-gekko/lib\libc.a(lib_a-dtoa.o)
                                 0x12 (size before relaxing)
 .rodata.str1.4
                0x80038768       0x3c c:/devkitpro/devkitppc/bin/../lib/gcc/powerpc-gekko/4.2.4/../../../../powerpc-gekko/lib\libc.a(lib_a-locale.o)
                                 0x62 (size before relaxing)
 .rodata.str1.4
                0x00000000       0x1e c:/devkitpro/devkitppc/bin/../lib/gcc/powerpc-gekko/4.2.4/../../../../powerpc-gekko/lib\libc.a(lib_a-mbtowc_r.o)
 .rodata.cst4   0x00000000        0x8 c:/devkitpro/devkitppc/bin/../lib/gcc/powerpc-gekko/4.2.4/../../../../powerpc-gekko/lib\libc.a(lib_a-mprec.o)
 *(.gnu.linkonce.r.*)

.eh_frame_hdr   0x800387a4       0x1c
 .eh_frame_hdr  0x800387a4       0x1c c:/devkitpro/devkitppc/bin/../lib/gcc/powerpc-gekko/4.2.4\libgcc.a(_udivdi3.o)

.rodata1
 *(.rodata1)

.sdata2         0x800387c0       0x14
 *(.sdata2)
 .sdata2        0x800387c0        0x0 c:/devkitpro/devkitppc/bin/../lib/gcc/powerpc-gekko/4.2.4/ecrti.o
                0x800387c0                __SDATA2_START__
                0x800387c0                _SDA2_BASE_
 *(.sdata2.*)
 .sdata2.C.25.8499
                0x800387c0        0x3 c:/devkitPro/libogc/lib/wii\libbte.a(bte.o)
 *fill*         0x800387c3        0x1 00
 .sdata2.C.24.8480
                0x800387c4        0x3 c:/devkitPro/libogc/lib/wii\libbte.a(bte.o)
 *fill*         0x800387c7        0x1 00
 .sdata2.C.27.8554
                0x800387c8        0x3 c:/devkitPro/libogc/lib/wii\libbte.a(bte.o)
 *fill*         0x800387cb        0x1 00
 .sdata2.C.26.8534
                0x800387cc        0x3 c:/devkitPro/libogc/lib/wii\libbte.a(bte.o)
 *fill*         0x800387cf        0x1 00
 .sdata2.__sys_inIPL
                0x800387d0        0x4 c:/devkitPro/libogc/lib/wii\libogc.a(system.o)
 *(.gnu.linkonce.s2.*)

.sbss2
 *(.sbss2)
 *(.sbss2.*)
 *(.gnu.linkonce.sb2.*)
                0x800387d4                . = ALIGN (0x4)
                0x800387d4                PROVIDE (__preinit_array_start, .)

.preinit_array
 *(.preinit_array)
                0x800387d4                PROVIDE (__preinit_array_end, .)
                0x800387d4                PROVIDE (__init_array_start, .)

.init_array
 *(.init_array)
                0x800387d4                PROVIDE (__init_array_end, .)
                0x800387d4                PROVIDE (__fini_array_start, .)

.fini_array
 *(.fini_array)
                0x800387d4                PROVIDE (__fini_array_end, .)

.data           0x800387e0     0x1d00
 *(.data)
 .data          0x800387e0        0x8 c:/devkitpro/devkitppc/bin/../lib/gcc/powerpc-gekko/4.2.4/crtbegin.o
                0x800387e0                __dso_handle
 .data          0x800387e8        0x8 c:/devkitPro/libogc/lib/wii\libogc.a(ogc_crt0.o)
 .data          0x800387f0       0x44 c:/devkitpro/devkitppc/bin/../lib/gcc/powerpc-gekko/4.2.4/../../../../powerpc-gekko/lib\libsysbase.a(iosupport.o)
                0x800387f4                devoptab_list
 *fill*         0x80038834        0x4 00
 .data          0x80038838      0x400 c:/devkitpro/devkitppc/bin/../lib/gcc/powerpc-gekko/4.2.4/../../../../powerpc-gekko/lib\libc.a(lib_a-impure.o)
 .data          0x80038c38      0x408 c:/devkitpro/devkitppc/bin/../lib/gcc/powerpc-gekko/4.2.4/../../../../powerpc-gekko/lib\libc.a(lib_a-mallocr.o)
                0x80038c38                __malloc_av_
 .data          0x80039040       0x34 c:/devkitpro/devkitppc/bin/../lib/gcc/powerpc-gekko/4.2.4/../../../../powerpc-gekko/lib\libc.a(lib_a-locale.o)
                0x80039050                __lc_ctype
 *(.data.*)
 .data.__wpad_resetinfo
                0x80039074       0x10 c:/devkitPro/libogc/lib/wii\libwiiuse.a(wpad.o)
 .data.bte_patch0
                0x80039084       0xb8 c:/devkitPro/libogc/lib/wii\libbte.a(bte.o)
 .data.bte_patch1
                0x8003913c       0x5c c:/devkitPro/libogc/lib/wii\libbte.a(bte.o)
 .data.TVPal528IntDf
                0x80039198       0x3c c:/devkitPro/libogc/lib/wii\libogc.a(video.o)
                0x80039198                TVPal528IntDf
 .data.TVNtsc480Prog
                0x800391d4       0x3c c:/devkitPro/libogc/lib/wii\libogc.a(video.o)
                0x800391d4                TVNtsc480Prog
 .data.TVNtsc480IntDf
                0x80039210       0x3c c:/devkitPro/libogc/lib/wii\libogc.a(video.o)
                0x80039210                TVNtsc480IntDf
 .data.TVEurgb60Hz480Int
                0x8003924c       0x3c c:/devkitPro/libogc/lib/wii\libogc.a(video.o)
                0x8003924c                TVEurgb60Hz480Int
 .data.TVMpal480IntDf
                0x80039288       0x3c c:/devkitPro/libogc/lib/wii\libogc.a(video.o)
                0x80039288                TVMpal480IntDf
 .data._dsp_initcode
                0x800392c4       0x80 c:/devkitPro/libogc/lib/wii\libogc.a(system.o)
 .data.mem_resetinfo
                0x80039344       0x10 c:/devkitPro/libogc/lib/wii\libogc.a(system.o)
 .data.xy       0x80039354       0x60 c:/devkitPro/libogc/lib/wii\libogc.a(si.o)
 .data.sicntrl  0x800393b4       0x14 c:/devkitPro/libogc/lib/wii\libogc.a(si.o)
 .data.si_type  0x800393c8       0x10 c:/devkitPro/libogc/lib/wii\libogc.a(si.o)
 .data.console_font_8x16
                0x800393d8     0x1000 c:/devkitPro/libogc/lib/wii\libogc.a(console_font_8x16.o)
                0x800393d8                console_font_8x16
 *fill*         0x8003a3d8        0x8 00
 .data.__stm_imm_fs
                0x8003a3e0       0x13 c:/devkitPro/libogc/lib/wii\libogc.a(stm.o)
 *fill*         0x8003a3f3        0xd 00
 .data.__stm_eh_fs
                0x8003a400       0x13 c:/devkitPro/libogc/lib/wii\libogc.a(stm.o)
 *fill*         0x8003a413        0xd 00
 .data.__kd_fs  0x8003a420       0x14 c:/devkitPro/libogc/lib/wii\libogc.a(network_wii.o)
 *fill*         0x8003a434        0xc 00
 .data.__iptop_fs
                0x8003a440       0x10 c:/devkitPro/libogc/lib/wii\libogc.a(network_wii.o)
 *fill*         0x8003a450       0x10 00
 .data.__manage_fs
                0x8003a460       0x14 c:/devkitPro/libogc/lib/wii\libogc.a(network_wii.o)
 *fill*         0x8003a474        0xc 00
 .data.__stateflags
                0x8003a480       0x28 c:/devkitPro/libogc/lib/wii\libogc.a(wiilaunch.o)
 *fill*         0x8003a4a8       0x18 00
 .data.__nandbootinfo
                0x8003a4c0       0x1a c:/devkitPro/libogc/lib/wii\libogc.a(wiilaunch.o)
 *(.gnu.linkonce.d.*)
                0x8003a4e0                . = ALIGN (0x20)
 *fill*         0x8003a4da        0x6 00

.data1
 *(.data1)

.tdata
 *(.tdata .tdata.* .gnu.linkonce.td.*)

.tbss
 *(.tbss .tbss.* .gnu.linkonce.tb.*)
 *(.tcommon)

.eh_frame       0x8003a4e0       0x50
 *(.eh_frame)
 .eh_frame      0x8003a4e0        0x0 c:/devkitpro/devkitppc/bin/../lib/gcc/powerpc-gekko/4.2.4/ecrti.o
                0x8003a4e0                __EH_FRAME_BEGIN__
 .eh_frame      0x8003a4e0        0x0 c:/devkitpro/devkitppc/bin/../lib/gcc/powerpc-gekko/4.2.4/crtbegin.o
 .eh_frame      0x8003a4e0       0x28 c:/devkitpro/devkitppc/bin/../lib/gcc/powerpc-gekko/4.2.4\libgcc.a(_udivdi3.o)
 .eh_frame      0x8003a508       0x20 c:/devkitpro/devkitppc/bin/../lib/gcc/powerpc-gekko/4.2.4\libgcc.a(_umoddi3.o)
                                 0x30 (size before relaxing)
 .eh_frame      0x8003a528        0x4 c:/devkitpro/devkitppc/bin/../lib/gcc/powerpc-gekko/4.2.4/crtend.o
 .eh_frame      0x8003a52c        0x4 c:/devkitpro/devkitppc/bin/../lib/gcc/powerpc-gekko/4.2.4/ecrtn.o
                0x8003a52c                __EH_FRAME_END__

.gcc_except_table
 *(.gcc_except_table)

.fixup
 *(.fixup)

.got1
 *(.got1)

.got2           0x8003a530        0x4
 *(.got2)
 .got2          0x8003a530        0x4 c:/devkitpro/devkitppc/bin/../lib/gcc/powerpc-gekko/4.2.4/../../../../powerpc-gekko/lib/crtmain.o

.dynamic
 *(.dynamic)

.ctors          0x8003a534        0xc
 *crtbegin.o(.ctors)
 .ctors         0x8003a534        0x4 c:/devkitpro/devkitppc/bin/../lib/gcc/powerpc-gekko/4.2.4/crtbegin.o
 *(EXCLUDE_FILE(*crtend.o) .ctors)
 .ctors         0x8003a538        0x0 c:/devkitpro/devkitppc/bin/../lib/gcc/powerpc-gekko/4.2.4/ecrti.o
                0x8003a538                __CTOR_LIST__
 .ctors         0x8003a538        0x0 c:/devkitpro/devkitppc/bin/../lib/gcc/powerpc-gekko/4.2.4/ecrtn.o
                0x8003a538                __CTOR_END__
 *(SORT(.ctors.*))
 *(.ctors)
 .ctors         0x8003a538        0x4 c:/devkitpro/devkitppc/bin/../lib/gcc/powerpc-gekko/4.2.4/crtend.o
                0x8003a540                . = ALIGN (0x20)
 *fill*         0x8003a53c        0x4 00

.dtors          0x8003a540       0x20
 *crtbegin.o(.dtors)
 .dtors         0x8003a540        0x4 c:/devkitpro/devkitppc/bin/../lib/gcc/powerpc-gekko/4.2.4/crtbegin.o
 *(EXCLUDE_FILE(*crtend.o) .dtors)
 .dtors         0x8003a544        0x0 c:/devkitpro/devkitppc/bin/../lib/gcc/powerpc-gekko/4.2.4/ecrti.o
                0x8003a544                __DTOR_LIST__
 .dtors         0x8003a544        0x0 c:/devkitpro/devkitppc/bin/../lib/gcc/powerpc-gekko/4.2.4/ecrtn.o
                0x8003a544                __DTOR_END__
 *(SORT(.dtors.*))
 *(.dtors)
 .dtors         0x8003a544        0x4 c:/devkitpro/devkitppc/bin/../lib/gcc/powerpc-gekko/4.2.4/crtend.o
                0x8003a560                . = ALIGN (0x20)
 *fill*         0x8003a548       0x18 00

.jcr            0x8003a560        0x4
 *(.jcr)
 .jcr           0x8003a560        0x0 c:/devkitpro/devkitppc/bin/../lib/gcc/powerpc-gekko/4.2.4/crtbegin.o
 .jcr           0x8003a560        0x4 c:/devkitpro/devkitppc/bin/../lib/gcc/powerpc-gekko/4.2.4/crtend.o

.got
 *(.got.plt)
 *(.got)

.sdata          0x8003a580      0x140
 *(.sdata)
 .sdata         0x8003a580        0x0 c:/devkitpro/devkitppc/bin/../lib/gcc/powerpc-gekko/4.2.4/ecrti.o
                0x8003a580                _SDA_BASE_
                0x8003a580                __SDATA_START__
 .sdata         0x8003a580        0x4 c:/devkitPro/libogc/lib/wii\libogc.a(ogc_crt0.o)
                0x8003a580                __system_argv
 *fill*         0x8003a584        0x4 00
 .sdata         0x8003a588       0x40 c:/devkitpro/devkitppc/bin/../lib/gcc/powerpc-gekko/4.2.4/../../../../powerpc-gekko/lib\libm.a(lib_a-s_mathcnst.o)
                0x8003a588                BIGX
                0x8003a5b0                z_hugeval
                0x8003a5b8                z_infinity
                0x8003a5a8                z_infinity_f
                0x8003a598                z_rooteps
                0x8003a5c0                z_notanum
                0x8003a590                SMALLX
                0x8003a5a4                z_hugeval_f
                0x8003a5a0                z_rooteps_f
                0x8003a5ac                z_notanum_f
 .sdata         0x8003a5c8        0x4 c:/devkitpro/devkitppc/bin/../lib/gcc/powerpc-gekko/4.2.4/../../../../powerpc-gekko/lib\libc.a(lib_a-ctype_.o)
                0x8003a5c8                __ctype_ptr
 .sdata         0x8003a5cc        0x8 c:/devkitpro/devkitppc/bin/../lib/gcc/powerpc-gekko/4.2.4/../../../../powerpc-gekko/lib\libc.a(lib_a-impure.o)
                0x8003a5d0                _global_impure_ptr
                0x8003a5cc                _impure_ptr
 .sdata         0x8003a5d4        0x8 c:/devkitpro/devkitppc/bin/../lib/gcc/powerpc-gekko/4.2.4/../../../../powerpc-gekko/lib\libc.a(lib_a-mallocr.o)
                0x8003a5d8                __malloc_sbrk_base
                0x8003a5d4                __malloc_trim_threshold
 .sdata         0x8003a5dc        0x4 c:/devkitpro/devkitppc/bin/../lib/gcc/powerpc-gekko/4.2.4/../../../../powerpc-gekko/lib\libc.a(lib_a-locale.o)
                0x8003a5dc                __mb_cur_max
 *(.sdata.*)
 .sdata.__wpad_idletimeout
                0x8003a5e0        0x4 c:/devkitPro/libogc/lib/wii\libwiiuse.a(wpad.o)
 .sdata.__wpad_powcb
                0x8003a5e4        0x4 c:/devkitPro/libogc/lib/wii\libwiiuse.a(wpad.o)
 .sdata.bte_ctrl_reqs
                0x8003a5e8        0x8 c:/devkitPro/libogc/lib/wii\libbte.a(bte.o)
 .sdata.bte_pcbs
                0x8003a5f0        0x8 c:/devkitPro/libogc/lib/wii\libbte.a(bte.o)
 .sdata.hci_inq_results
                0x8003a5f8        0x8 c:/devkitPro/libogc/lib/wii\libbte.a(hci.o)
 .sdata.hci_pcbs
                0x8003a600        0x8 c:/devkitPro/libogc/lib/wii\libbte.a(hci.o)
 .sdata.hci_links
                0x8003a608        0x8 c:/devkitPro/libogc/lib/wii\libbte.a(hci.o)
 .sdata.hci_link_key_results
                0x8003a610        0x8 c:/devkitPro/libogc/lib/wii\libbte.a(hci.o)
 .sdata.l2cap_segs
                0x8003a618        0x8 c:/devkitPro/libogc/lib/wii\libbte.a(l2cap.o)
 .sdata.l2cap_sigs
                0x8003a620        0x8 c:/devkitPro/libogc/lib/wii\libbte.a(l2cap.o)
 .sdata.l2cap_pcbs
                0x8003a628        0x8 c:/devkitPro/libogc/lib/wii\libbte.a(l2cap.o)
 .sdata.l2cap_listenpcbs
                0x8003a630        0x8 c:/devkitPro/libogc/lib/wii\libbte.a(l2cap.o)
 .sdata.pool_pbufs
                0x8003a638        0x8 c:/devkitPro/libogc/lib/wii\libbte.a(btpbuf.o)
 .sdata.rom_pbufs
                0x8003a640        0x8 c:/devkitPro/libogc/lib/wii\libbte.a(btpbuf.o)
 .sdata.__wait4hci
                0x8003a648        0x4 c:/devkitPro/libogc/lib/wii\libbte.a(physbusif.o)
 .sdata.__ntd_usb_fd
                0x8003a64c        0x4 c:/devkitPro/libogc/lib/wii\libbte.a(physbusif.o)
 .sdata.__gecko_status
                0x8003a650        0x4 c:/devkitPro/libogc/lib/wii\libogc.a(console.o)
 .sdata.oldTvStatus
                0x8003a654        0x4 c:/devkitPro/libogc/lib/wii\libogc.a(video.o)
 .sdata.oldDtvStatus
                0x8003a658        0x4 c:/devkitPro/libogc/lib/wii\libogc.a(video.o)
 .sdata.i2cIdentFlag
                0x8003a65c        0x4 c:/devkitPro/libogc/lib/wii\libogc.a(video.o)
 .sdata.__pad_spec
                0x8003a660        0x4 c:/devkitPro/libogc/lib/wii\libogc.a(pad.o)
 .sdata.__pad_cmdcalibrate
                0x8003a664        0x4 c:/devkitPro/libogc/lib/wii\libogc.a(pad.o)
 .sdata.__pad_resettingchan
                0x8003a668        0x4 c:/devkitPro/libogc/lib/wii\libogc.a(pad.o)
 .sdata.__pad_cmdreadorigin
                0x8003a66c        0x4 c:/devkitPro/libogc/lib/wii\libogc.a(pad.o)
 .sdata.__argvArena1Lo
                0x8003a670        0x4 c:/devkitPro/libogc/lib/wii\libogc.a(system.o)
                0x8003a670                __argvArena1Lo
 .sdata._ipc_hid
                0x8003a674        0x4 c:/devkitPro/libogc/lib/wii\libogc.a(ipc.o)
 .sdata._ipc_mailboxack
                0x8003a678        0x4 c:/devkitPro/libogc/lib/wii\libogc.a(ipc.o)
 .sdata.__stm_imm_fd
                0x8003a67c        0x4 c:/devkitPro/libogc/lib/wii\libogc.a(stm.o)
 .sdata.__stm_eh_fd
                0x8003a680        0x4 c:/devkitPro/libogc/lib/wii\libogc.a(stm.o)
 .sdata.__ios_hid
                0x8003a684        0x4 c:/devkitPro/libogc/lib/wii\libogc.a(ios.o)
 .sdata.__es_fd
                0x8003a688        0x4 c:/devkitPro/libogc/lib/wii\libogc.a(es.o)
 *fill*         0x8003a68c       0x14 00
 .sdata.__es_fs
                0x8003a6a0        0x8 c:/devkitPro/libogc/lib/wii\libogc.a(es.o)
 .sdata.__es_hid
                0x8003a6a8        0x4 c:/devkitPro/libogc/lib/wii\libogc.a(es.o)
 .sdata.hId     0x8003a6ac        0x4 c:/devkitPro/libogc/lib/wii\libogc.a(usb.o)
 .sdata.net_ip_top_fd
                0x8003a6b0        0x4 c:/devkitPro/libogc/lib/wii\libogc.a(network_wii.o)
 .sdata.__net_hid
                0x8003a6b4        0x4 c:/devkitPro/libogc/lib/wii\libogc.a(network_wii.o)
 *(.gnu.linkonce.s.*)
                0x8003a6c0                . = ALIGN (0x20)
 *fill*         0x8003a6b8        0x8 00
                0x8003a6c0                _edata = .
                0x8003a6c0                PROVIDE (edata, .)

.sbss           0x8003a6c0      0x200
                0x8003a6c0                __sbss_start = .
                0x8003a6c0                PROVIDE (__sbss_start, .)
                0x8003a6c0                PROVIDE (___sbss_start, .)
 *(.dynsbss)
 *(.sbss)
 .sbss          0x00000000        0x0 c:/devkitpro/devkitppc/bin/../lib/gcc/powerpc-gekko/4.2.4/crtbegin.o
 .sbss          0x8003a6c0        0x5 c:/devkitPro/libogc/lib/wii\libbte.a(l2cap.o)
                0x8003a6c0                l2cap_active_pcbs
                0x8003a6c4                sigid_nxt
 *fill*         0x8003a6c5        0x3 00
 .sbss          0x8003a6c8        0x8 c:/devkitPro/libogc/lib/wii\libogc.a(lwp_threads.o)
                0x8003a6c8                _context_switch_want
                0x8003a6cc                _thread_dispatch_disable_level
 .sbss          0x8003a6d0        0xc c:/devkitPro/libogc/lib/wii\libogc.a(lwp_watchdog.o)
                0x8003a6d0                _wd_sync_count
                0x8003a6d4                _wd_sync_level
                0x8003a6d8                _wd_ticks_since_boot
 .sbss          0x8003a6dc        0x4 c:/devkitPro/libogc/lib/wii\libogc.a(sys_state.o)
                0x8003a6dc                _sys_state_curr
 .sbss          0x8003a6e0        0x4 c:/devkitPro/libogc/lib/wii\libogc.a(newlibc.o)
                0x8003a6e0                libc_reentrant
 .sbss          0x8003a6e4        0x4 c:/devkitPro/libogc/lib/wii\libogc.a(lwp_priority.o)
                0x8003a6e4                _prio_major_bitmap
 .sbss          0x8003a6e8        0xc c:/devkitpro/devkitppc/bin/../lib/gcc/powerpc-gekko/4.2.4/../../../../powerpc-gekko/lib\libc.a(lib_a-mallocr.o)
                0x8003a6e8                __malloc_top_pad
                0x8003a6ec                __malloc_max_sbrked_mem
                0x8003a6f0                __malloc_max_total_mem
 *(.sbss.*)
 .sbss.__wpads_used
                0x8003a6f4        0x4 c:/devkitPro/libogc/lib/wii\libwiiuse.a(wpad.o)
 .sbss.__wpads  0x8003a6f8        0x4 c:/devkitPro/libogc/lib/wii\libwiiuse.a(wpad.o)
 .sbss.__wpad_timer
                0x8003a6fc        0x4 c:/devkitPro/libogc/lib/wii\libwiiuse.a(wpad.o)
 .sbss.__wpads_inited
                0x8003a700        0x4 c:/devkitPro/libogc/lib/wii\libwiiuse.a(wpad.o)
 .sbss.__wpads_ponded
                0x8003a704        0x4 c:/devkitPro/libogc/lib/wii\libwiiuse.a(wpad.o)
 .sbss.__wpads_active
                0x8003a708        0x4 c:/devkitPro/libogc/lib/wii\libwiiuse.a(wpad.o)
 .sbss.__wpad_batcb
                0x8003a70c        0x4 c:/devkitPro/libogc/lib/wii\libwiiuse.a(wpad.o)
 .sbss.hci_dev  0x8003a710        0x4 c:/devkitPro/libogc/lib/wii\libbte.a(hci.o)
                0x8003a710                hci_dev
 .sbss.hci_active_links
                0x8003a714        0x4 c:/devkitPro/libogc/lib/wii\libbte.a(hci.o)
                0x8003a714                hci_active_links
 .sbss.hci_tmp_link
                0x8003a718        0x4 c:/devkitPro/libogc/lib/wii\libbte.a(hci.o)
                0x8003a718                hci_tmp_link
 .sbss.l2cap_listen_pcbs
                0x8003a71c        0x4 c:/devkitPro/libogc/lib/wii\libbte.a(l2cap.o)
                0x8003a71c                l2cap_listen_pcbs
 .sbss.l2cap_tmp_sig
                0x8003a720        0x4 c:/devkitPro/libogc/lib/wii\libbte.a(l2cap.o)
                0x8003a720                l2cap_tmp_sig
 .sbss.l2cap_disconnect_bb_cb
                0x8003a724        0x4 c:/devkitPro/libogc/lib/wii\libbte.a(l2cap.o)
 .sbss.l2cap_tmp_pcb
                0x8003a728        0x4 c:/devkitPro/libogc/lib/wii\libbte.a(l2cap.o)
                0x8003a728                l2cap_tmp_pcb
 .sbss.l2cap_tmp_inseg
                0x8003a72c        0x4 c:/devkitPro/libogc/lib/wii\libbte.a(l2cap.o)
                0x8003a72c                l2cap_tmp_inseg
 .sbss.l2cap_insegs
                0x8003a730        0x4 c:/devkitPro/libogc/lib/wii\libbte.a(l2cap.o)
                0x8003a730                l2cap_insegs
 .sbss.ram_end  0x8003a734        0x4 c:/devkitPro/libogc/lib/wii\libbte.a(btmemr.o)
 .sbss.ram_free
                0x8003a738        0x4 c:/devkitPro/libogc/lib/wii\libbte.a(btmemr.o)
 .sbss.__ntd_vid
                0x8003a73c        0x2 c:/devkitPro/libogc/lib/wii\libbte.a(physbusif.o)
 *fill*         0x8003a73e        0x2 00
 .sbss.ctrlbufs
                0x8003a740        0x8 c:/devkitPro/libogc/lib/wii\libbte.a(physbusif.o)
 .sbss.__ntd_pid
                0x8003a748        0x2 c:/devkitPro/libogc/lib/wii\libbte.a(physbusif.o)
 *fill*         0x8003a74a        0x2 00
 .sbss.__ntd_ohci
                0x8003a74c        0x4 c:/devkitPro/libogc/lib/wii\libbte.a(physbusif.o)
 .sbss.__ntd_vid_pid_specified
                0x8003a750        0x4 c:/devkitPro/libogc/lib/wii\libbte.a(physbusif.o)
 .sbss.__ntd_ohci_initflag
                0x8003a754        0x4 c:/devkitPro/libogc/lib/wii\libbte.a(physbusif.o)
 .sbss.aclbufs  0x8003a758        0x8 c:/devkitPro/libogc/lib/wii\libbte.a(physbusif.o)
 .sbss.curr_con
                0x8003a760        0x4 c:/devkitPro/libogc/lib/wii\libogc.a(console.o)
 .sbss.__gecko_safe
                0x8003a764        0x4 c:/devkitPro/libogc/lib/wii\libogc.a(console.o)
 .sbss.do_xfb_copy
                0x8003a768        0x4 c:/devkitPro/libogc/lib/wii\libogc.a(console.o)
 .sbss._thr_executing
                0x8003a76c        0x4 c:/devkitPro/libogc/lib/wii\libogc.a(lwp_threads.o)
                0x8003a76c                _thr_executing
 .sbss._lwp_exitfunc
                0x8003a770        0x4 c:/devkitPro/libogc/lib/wii\libogc.a(lwp_threads.o)
 .sbss._thr_main
                0x8003a774        0x4 c:/devkitPro/libogc/lib/wii\libogc.a(lwp_threads.o)
                0x8003a774                _thr_main
 .sbss.__lwp_thr_libc_reent
                0x8003a778        0x4 c:/devkitPro/libogc/lib/wii\libogc.a(lwp_threads.o)
                0x8003a778                __lwp_thr_libc_reent
 .sbss._thr_heir
                0x8003a77c        0x4 c:/devkitPro/libogc/lib/wii\libogc.a(lwp_threads.o)
                0x8003a77c                _thr_heir
 .sbss._thr_allocated_fp
                0x8003a780        0x4 c:/devkitPro/libogc/lib/wii\libogc.a(lwp_threads.o)
                0x8003a780                _thr_allocated_fp
 .sbss._lwp_ticks_per_timeslice
                0x8003a784        0x4 c:/devkitPro/libogc/lib/wii\libogc.a(lwp_threads.o)
                0x8003a784                _lwp_ticks_per_timeslice
 .sbss._thr_idle
                0x8003a788        0x4 c:/devkitPro/libogc/lib/wii\libogc.a(lwp_threads.o)
                0x8003a788                _thr_idle
 .sbss.__wkspace_heap_size
                0x8003a78c        0x4 c:/devkitPro/libogc/lib/wii\libogc.a(lwp_wkspace.o)
 .sbss.null_local_table
                0x8003a790        0x4 c:/devkitPro/libogc/lib/wii\libogc.a(lwp_objmgr.o)
 .sbss._lwp_objmgr_memsize
                0x8003a794        0x4 c:/devkitPro/libogc/lib/wii\libogc.a(lwp_objmgr.o)
 .sbss.spuriousIrq
                0x8003a798        0x8 c:/devkitPro/libogc/lib/wii\libogc.a(irq.o)
 .sbss.prevIrqMask
                0x8003a7a0        0x4 c:/devkitPro/libogc/lib/wii\libogc.a(irq.o)
 .sbss.currIrqMask
                0x8003a7a4        0x4 c:/devkitPro/libogc/lib/wii\libogc.a(irq.o)
 .sbss.postRetraceCB
                0x8003a7a8        0x4 c:/devkitPro/libogc/lib/wii\libogc.a(video.o)
 .sbss.currentFb
                0x8003a7ac        0x4 c:/devkitPro/libogc/lib/wii\libogc.a(video.o)
 .sbss.currTiming
                0x8003a7b0        0x4 c:/devkitPro/libogc/lib/wii\libogc.a(video.o)
 .sbss.currTvMode
                0x8003a7b4        0x4 c:/devkitPro/libogc/lib/wii\libogc.a(video.o)
 .sbss.nextFb   0x8003a7b8        0x4 c:/devkitPro/libogc/lib/wii\libogc.a(video.o)
 .sbss.encoderType
                0x8003a7bc        0x4 c:/devkitPro/libogc/lib/wii\libogc.a(video.o)
 .sbss.displayOffsetH
                0x8003a7c0        0x2 c:/devkitPro/libogc/lib/wii\libogc.a(video.o)
 *fill*         0x8003a7c2        0x2 00
 .sbss.changeMode
                0x8003a7c4        0x4 c:/devkitPro/libogc/lib/wii\libogc.a(video.o)
 .sbss.displayOffsetV
                0x8003a7c8        0x2 c:/devkitPro/libogc/lib/wii\libogc.a(video.o)
 *fill*         0x8003a7ca        0x2 00
 .sbss.flushFlag
                0x8003a7cc        0x4 c:/devkitPro/libogc/lib/wii\libogc.a(video.o)
 .sbss.preRetraceCB
                0x8003a7d0        0x4 c:/devkitPro/libogc/lib/wii\libogc.a(video.o)
 .sbss.video_queue
                0x8003a7d4        0x4 c:/devkitPro/libogc/lib/wii\libogc.a(video.o)
 .sbss.shdw_changeMode
                0x8003a7d8        0x4 c:/devkitPro/libogc/lib/wii\libogc.a(video.o)
 .sbss.retraceCount
                0x8003a7dc        0x4 c:/devkitPro/libogc/lib/wii\libogc.a(video.o)
 .sbss.changed  0x8003a7e0        0x8 c:/devkitPro/libogc/lib/wii\libogc.a(video.o)
 .sbss.fbSet    0x8003a7e8        0x4 c:/devkitPro/libogc/lib/wii\libogc.a(video.o)
 .sbss.vdacFlagRegion
                0x8003a7ec        0x4 c:/devkitPro/libogc/lib/wii\libogc.a(video.o)
 .sbss.shdw_changed
                0x8003a7f0        0x8 c:/devkitPro/libogc/lib/wii\libogc.a(video.o)
 .sbss.i2cIdentFirst
                0x8003a7f8        0x4 c:/devkitPro/libogc/lib/wii\libogc.a(video.o)
 .sbss.__pad_makestatus
                0x8003a7fc        0x4 c:/devkitPro/libogc/lib/wii\libogc.a(pad.o)
 .sbss.__pad_resettingbits
                0x8003a800        0x4 c:/devkitPro/libogc/lib/wii\libogc.a(pad.o)
 .sbss.__pad_recalibratebits
                0x8003a804        0x4 c:/devkitPro/libogc/lib/wii\libogc.a(pad.o)
 .sbss.__pad_enabledbits
                0x8003a808        0x4 c:/devkitPro/libogc/lib/wii\libogc.a(pad.o)
 .sbss.__pad_pendingbits
                0x8003a80c        0x4 c:/devkitPro/libogc/lib/wii\libogc.a(pad.o)
 .sbss.__pad_checkingbits
                0x8003a810        0x4 c:/devkitPro/libogc/lib/wii\libogc.a(pad.o)
 .sbss.__pad_waitingbits
                0x8003a814        0x4 c:/devkitPro/libogc/lib/wii\libogc.a(pad.o)
 .sbss.__sysarena1hi
                0x8003a818        0x4 c:/devkitPro/libogc/lib/wii\libogc.a(system.o)
 .sbss.__ipcbufferhi
                0x8003a81c        0x4 c:/devkitPro/libogc/lib/wii\libogc.a(system.o)
 .sbss.__sysarena2lo
                0x8003a820        0x4 c:/devkitPro/libogc/lib/wii\libogc.a(system.o)
 .sbss.system_initialized
                0x8003a824        0x4 c:/devkitPro/libogc/lib/wii\libogc.a(system.o)
 .sbss.__sysarena1lo
                0x8003a828        0x4 c:/devkitPro/libogc/lib/wii\libogc.a(system.o)
 .sbss.__sys_versionbuild
                0x8003a82c        0x4 c:/devkitPro/libogc/lib/wii\libogc.a(system.o)
 .sbss.__ipcbufferlo
                0x8003a830        0x4 c:/devkitPro/libogc/lib/wii\libogc.a(system.o)
 .sbss.__sysarena2hi
                0x8003a834        0x4 c:/devkitPro/libogc/lib/wii\libogc.a(system.o)
 .sbss.__sys_versiondate
                0x8003a838        0x4 c:/devkitPro/libogc/lib/wii\libogc.a(system.o)
 .sbss.__RSWCallback
                0x8003a83c        0x4 c:/devkitPro/libogc/lib/wii\libogc.a(system.o)
 .sbss.__POWCallback
                0x8003a840        0x4 c:/devkitPro/libogc/lib/wii\libogc.a(system.o)
 .sbss.__sys_resetdown
                0x8003a844        0x4 c:/devkitPro/libogc/lib/wii\libogc.a(system.o)
 .sbss.__PADFixBits
                0x8003a848        0x4 c:/devkitPro/libogc/lib/wii\libogc.a(si.o)
                0x8003a848                __PADFixBits
 .sbss.cmdtypeandstatus$47
                0x8003a84c        0x4 c:/devkitPro/libogc/lib/wii\libogc.a(si.o)
 .sbss.sampling_rate
                0x8003a850        0x4 c:/devkitPro/libogc/lib/wii\libogc.a(si.o)
 .sbss.cmdtypeandstatus$223
                0x8003a854        0x4 c:/devkitPro/libogc/lib/wii\libogc.a(si.o)
 .sbss._ipc_currbufferhi
                0x8003a858        0x4 c:/devkitPro/libogc/lib/wii\libogc.a(ipc.o)
 *fill*         0x8003a85c        0x4 00
 .sbss._ipc_spuriousresponsecnt
                0x8003a860        0x8 c:/devkitPro/libogc/lib/wii\libogc.a(ipc.o)
 .sbss._ipc_relnchFl
                0x8003a868        0x4 c:/devkitPro/libogc/lib/wii\libogc.a(ipc.o)
 .sbss._ipc_clntinitialized
                0x8003a86c        0x4 c:/devkitPro/libogc/lib/wii\libogc.a(ipc.o)
 .sbss._ipc_bufferlo
                0x8003a870        0x4 c:/devkitPro/libogc/lib/wii\libogc.a(ipc.o)
 .sbss._ipc_bufferhi
                0x8003a874        0x4 c:/devkitPro/libogc/lib/wii\libogc.a(ipc.o)
 .sbss._ipc_currbufferlo
                0x8003a878        0x4 c:/devkitPro/libogc/lib/wii\libogc.a(ipc.o)
 .sbss._ipc_relnchRpc
                0x8003a87c        0x4 c:/devkitPro/libogc/lib/wii\libogc.a(ipc.o)
 .sbss._ipc_initialized
                0x8003a880        0x4 c:/devkitPro/libogc/lib/wii\libogc.a(ipc.o)
 .sbss.time_exi_wait
                0x8003a884        0x4 c:/devkitPro/libogc/lib/wii\libogc.a(timesupp.o)
 .sbss.exi_wait_inited
                0x8003a888        0x4 c:/devkitPro/libogc/lib/wii\libogc.a(timesupp.o)
 .sbss.wait_exi_queue
                0x8003a88c        0x8 c:/devkitPro/libogc/lib/wii\libogc.a(usbgecko.o)
 .sbss.usbgecko_inited
                0x8003a894        0x4 c:/devkitPro/libogc/lib/wii\libogc.a(usbgecko.o)
 .sbss.initialized
                0x8003a898        0x4 c:/devkitPro/libogc/lib/wii\libogc.a(malloc_lock.o)
 .sbss.__stm_initialized
                0x8003a89c        0x4 c:/devkitPro/libogc/lib/wii\libogc.a(stm.o)
 .sbss.__stm_vdinuse
                0x8003a8a0        0x4 c:/devkitPro/libogc/lib/wii\libogc.a(stm.o)
 .sbss.__stm_ehregistered
                0x8003a8a4        0x4 c:/devkitPro/libogc/lib/wii\libogc.a(stm.o)
 .sbss.__stm_eventcb
                0x8003a8a8        0x4 c:/devkitPro/libogc/lib/wii\libogc.a(stm.o)
                0x8003a8a8                __stm_eventcb
 .sbss.__stm_ehclear
                0x8003a8ac        0x4 c:/devkitPro/libogc/lib/wii\libogc.a(stm.o)
 .sbss.__conf_inited
                0x8003a8b0        0x4 c:/devkitPro/libogc/lib/wii\libogc.a(conf.o)
 .sbss.__initialized
                0x8003a8b4        0x4 c:/devkitPro/libogc/lib/wii\libogc.a(wiilaunch.o)
 .sbss.exi_id_serport1
                0x8003a8b8        0x4 c:/devkitPro/libogc/lib/wii\libogc.a(exi.o)
 *(.gnu.linkonce.sb.*)
 *(.scommon)
                0x8003a8bc                PROVIDE (__sbss_end, .)
                0x8003a8bc                PROVIDE (___sbss_end, .)
                0x8003a8c0                . = ALIGN (0x20)
 *fill*         0x8003a8bc        0x4 00
                0x8003a8c0                __sbss_end = .

.bss            0x8003a8c0    0x746c0
                0x8003a8c0                __bss_start = .
                0x8003a8c0                PROVIDE (__bss_start, .)
 *(.dynbss)
 *(.bss)
 .bss           0x8003a8c0       0x1c c:/devkitpro/devkitppc/bin/../lib/gcc/powerpc-gekko/4.2.4/crtbegin.o
 *fill*         0x8003a8dc        0x4 00
 .bss           0x8003a8e0     0x4000 c:/devkitPro/libogc/lib/wii\libogc.a(ogc_crt0.o)
 .bss           0x8003e8e0       0x20 c:/devkitpro/devkitppc/bin/../lib/gcc/powerpc-gekko/4.2.4/../../../../powerpc-gekko/lib\libsysbase.a(syscall_support.o)
                0x8003e8e0                __syscalls
 .bss           0x8003e900        0x8 c:/devkitpro/devkitppc/bin/../lib/gcc/powerpc-gekko/4.2.4/../../../../powerpc-gekko/lib\libc.a(lib_a-findfp.o)
 .bss           0x8003e908       0x28 c:/devkitpro/devkitppc/bin/../lib/gcc/powerpc-gekko/4.2.4/../../../../powerpc-gekko/lib\libc.a(lib_a-mallocr.o)
                0x8003e908                __malloc_current_mallinfo
 .bss           0x8003e930     0x1000 c:/devkitpro/devkitppc/bin/../lib/gcc/powerpc-gekko/4.2.4/../../../../powerpc-gekko/lib\libsysbase.a(handle_manager.o)
 *(.bss.*)
 .bss.xfb       0x8003f930        0x4 helloworld.o
 .bss.rmode     0x8003f934        0x4 helloworld.o
 .bss._reset    0x8003f938        0x1 reset.o
 .bss.__wpad_devs
                0x8003f939      0x461 c:/devkitPro/libogc/lib/wii\libwiiuse.a(wpad.o)
 *fill*         0x8003fd9a        0x2 00
 .bss.__wpdcb   0x8003fd9c     0x70a8 c:/devkitPro/libogc/lib/wii\libwiiuse.a(wpad.o)
 .bss.__wpads_listen
                0x80046e44       0xc8 c:/devkitPro/libogc/lib/wii\libwiiuse.a(wpad.o)
 .bss.__wpad_keys
                0x80046f0c       0x6e c:/devkitPro/libogc/lib/wii\libwiiuse.a(wpad.o)
 *fill*         0x80046f7a        0x2 00
 .bss.wpaddata  0x80046f7c      0x690 c:/devkitPro/libogc/lib/wii\libwiiuse.a(wpad.o)
 .bss.btstate   0x8004760c       0x1c c:/devkitPro/libogc/lib/wii\libbte.a(bte.o)
 .bss.ppc_stack
                0x80047628     0x8000 c:/devkitPro/libogc/lib/wii\libbte.a(bte.o)
 .bss.memb_mem_bte_pcbs
                0x8004f628      0x310 c:/devkitPro/libogc/lib/wii\libbte.a(bte.o)
 .bss.memb_mem_bte_ctrl_reqs
                0x8004f938     0x1c00 c:/devkitPro/libogc/lib/wii\libbte.a(bte.o)
 .bss.memb_mem_hci_inq_results
                0x80051538     0x1800 c:/devkitPro/libogc/lib/wii\libbte.a(hci.o)
 .bss.memb_mem_hci_links
                0x80052d38       0xa8 c:/devkitPro/libogc/lib/wii\libbte.a(hci.o)
 .bss.memb_mem_hci_link_key_results
                0x80052de0     0x2000 c:/devkitPro/libogc/lib/wii\libbte.a(hci.o)
 .bss.memb_mem_hci_pcbs
                0x80054de0       0x5c c:/devkitPro/libogc/lib/wii\libbte.a(hci.o)
 .bss.memb_mem_l2cap_sigs
                0x80054e3c       0xf0 c:/devkitPro/libogc/lib/wii\libbte.a(l2cap.o)
 .bss.memb_mem_l2cap_pcbs
                0x80054f2c      0x498 c:/devkitPro/libogc/lib/wii\libbte.a(l2cap.o)
 .bss.memb_mem_l2cap_segs
                0x800553c4      0x1c0 c:/devkitPro/libogc/lib/wii\libbte.a(l2cap.o)
 .bss.memb_mem_l2cap_listenpcbs
                0x80055584      0x230 c:/devkitPro/libogc/lib/wii\libbte.a(l2cap.o)
 .bss.ram_block
                0x800557b4    0x10010 c:/devkitPro/libogc/lib/wii\libbte.a(btmemr.o)
 .bss.memb_mem_rom_pbufs
                0x800657c4      0x384 c:/devkitPro/libogc/lib/wii\libbte.a(btpbuf.o)
 .bss.memb_mem_pool_pbufs
                0x80065b48    0x32280 c:/devkitPro/libogc/lib/wii\libbte.a(btpbuf.o)
 .bss.__usbdev  0x80097dc8       0x1c c:/devkitPro/libogc/lib/wii\libbte.a(physbusif.o)
 *fill*         0x80097de4        0x4 00
 .bss.__ppc_btstack1
                0x80097de8     0x8000 c:/devkitPro/libogc/lib/wii\libbte.a(physbusif.o)
 .bss.__ppc_btstack2
                0x8009fde8     0x8000 c:/devkitPro/libogc/lib/wii\libbte.a(physbusif.o)
 .bss.stdcon    0x800a7de8       0x40 c:/devkitPro/libogc/lib/wii\libogc.a(console.o)
 .bss.g_IRQHandler
                0x800a7e28      0x100 c:/devkitPro/libogc/lib/wii\libogc.a(irq.o)
 .bss.shdw_regs
                0x800a7f28       0x78 c:/devkitPro/libogc/lib/wii\libogc.a(video.o)
 .bss.regs      0x800a7fa0       0x78 c:/devkitPro/libogc/lib/wii\libogc.a(video.o)
 .bss.HorVer    0x800a8018       0x58 c:/devkitPro/libogc/lib/wii\libogc.a(video.o)
 .bss.__pad_type
                0x800a8070       0x10 c:/devkitPro/libogc/lib/wii\libogc.a(pad.o)
 .bss.__pad_cmdprobedevice
                0x800a8080       0x10 c:/devkitPro/libogc/lib/wii\libogc.a(pad.o)
 .bss.__pad_keys
                0x800a8090       0x50 c:/devkitPro/libogc/lib/wii\libogc.a(pad.o)
 .bss.__pad_origin
                0x800a80e0       0x30 c:/devkitPro/libogc/lib/wii\libogc.a(pad.o)
 .bss.sys_alarm_objects
                0x800a8110       0x28 c:/devkitPro/libogc/lib/wii\libogc.a(system.o)
 .bss.sys_reset_func_queue
                0x800a8138        0xc c:/devkitPro/libogc/lib/wii\libogc.a(system.o)
 .bss.inputBufferValid
                0x800a8144       0x10 c:/devkitPro/libogc/lib/wii\libogc.a(si.o)
 .bss.inputBuffer
                0x800a8154       0x20 c:/devkitPro/libogc/lib/wii\libogc.a(si.o)
 .bss.typeCallback
                0x800a8174       0x40 c:/devkitPro/libogc/lib/wii\libogc.a(si.o)
 *fill*         0x800a81b4        0x4 00
 .bss.typeTime  0x800a81b8       0x20 c:/devkitPro/libogc/lib/wii\libogc.a(si.o)
 .bss.xferTime  0x800a81d8       0x20 c:/devkitPro/libogc/lib/wii\libogc.a(si.o)
 .bss.cmdfixdevice
                0x800a81f8       0x10 c:/devkitPro/libogc/lib/wii\libogc.a(si.o)
 .bss.sipacket  0x800a8208       0x80 c:/devkitPro/libogc/lib/wii\libogc.a(si.o)
 .bss.inputBufferVCount
                0x800a8288       0x10 c:/devkitPro/libogc/lib/wii\libogc.a(si.o)
 .bss.si_alarm  0x800a8298       0x10 c:/devkitPro/libogc/lib/wii\libogc.a(si.o)
 .bss.rdstHandlers
                0x800a82a8       0x10 c:/devkitPro/libogc/lib/wii\libogc.a(si.o)
 .bss._ipc_heaps
                0x800a82b8      0x120 c:/devkitPro/libogc/lib/wii\libogc.a(ipc.o)
 .bss._ipc_responses
                0x800a83d8       0x50 c:/devkitPro/libogc/lib/wii\libogc.a(ipc.o)
 .bss.mem_lock  0x800a8428       0x5c c:/devkitPro/libogc/lib/wii\libogc.a(malloc_lock.o)
 *fill*         0x800a8484       0x1c 00
 .bss.__stm_ehbufin
                0x800a84a0       0x20 c:/devkitPro/libogc/lib/wii\libogc.a(stm.o)
 .bss.__stm_ehbufout
                0x800a84c0       0x20 c:/devkitPro/libogc/lib/wii\libogc.a(stm.o)
 .bss.__stm_immbufin
                0x800a84e0       0x20 c:/devkitPro/libogc/lib/wii\libogc.a(stm.o)
 .bss.__stm_immbufout
                0x800a8500       0x20 c:/devkitPro/libogc/lib/wii\libogc.a(stm.o)
 .bss.str.3120  0x800a8520       0x10 c:/devkitPro/libogc/lib/wii\libogc.a(network_common.o)
 *fill*         0x800a8530       0x10 00
 .bss.__conf_buffer
                0x800a8540     0x4000 c:/devkitPro/libogc/lib/wii\libogc.a(conf.o)
 .bss.__conf_txt_buffer
                0x800ac540      0x101 c:/devkitPro/libogc/lib/wii\libogc.a(conf.o)
 *fill*         0x800ac641       0x1f 00
 .bss.stateflags
                0x800ac660       0x20 c:/devkitPro/libogc/lib/wii\libogc.a(wiilaunch.o)
 .bss.nandboot  0x800ac680     0x1020 c:/devkitPro/libogc/lib/wii\libogc.a(wiilaunch.o)
 .bss.eximap    0x800ad6a0       0xc0 c:/devkitPro/libogc/lib/wii\libogc.a(exi.o)
 .bss.lckdevs   0x800ad760      0x200 c:/devkitPro/libogc/lib/wii\libogc.a(exi.o)
 .bss._lckdev_queue
                0x800ad960        0xc c:/devkitPro/libogc/lib/wii\libogc.a(exi.o)
 *fill*         0x800ad96c        0x4 00
 .bss.last_exi_idtime
                0x800ad970       0x18 c:/devkitPro/libogc/lib/wii\libogc.a(exi.o)
 *(.gnu.linkonce.b.*)
 *(COMMON)
 COMMON         0x800ad988      0xef8 c:/devkitPro/libogc/lib/wii\libogc.a(lwp_threads.o)
                0x800ad988                _lwp_thr_ready
                0x800ae588                _lwp_wd_timeslice
                0x800ae5b0                core_context
 COMMON         0x800ae880       0x50 c:/devkitPro/libogc/lib/wii\libogc.a(lwp.o)
                0x800ae880                _lwp_thr_objects
                0x800ae8a8                _lwp_tqueue_objects
 COMMON         0x800ae8d0        0xc c:/devkitPro/libogc/lib/wii\libogc.a(lwp_watchdog.o)
                0x800ae8d0                _wd_ticks_queue
 COMMON         0x800ae8dc       0x1c c:/devkitPro/libogc/lib/wii\libogc.a(lwp_wkspace.o)
                0x800ae8dc                __wkspace_heap
 *fill*         0x800ae8f8        0x8 00
 COMMON         0x800ae900       0x50 c:/devkitPro/libogc/lib/wii\libogc.a(system.o)
                0x800ae900                sramcntrl
 COMMON         0x800ae950       0x28 c:/devkitPro/libogc/lib/wii\libogc.a(cond.o)
                0x800ae950                _lwp_cond_objects
 COMMON         0x800ae978       0x28 c:/devkitPro/libogc/lib/wii\libogc.a(message.o)
                0x800ae978                _lwp_mqbox_objects
 COMMON         0x800ae9a0      0x400 c:/devkitPro/libogc/lib/wii\libogc.a(newlibc.o)
                0x800ae9a0                libc_globl_reent
 COMMON         0x800aeda0       0x40 c:/devkitPro/libogc/lib/wii\libogc.a(lwp_priority.o)
                0x800aeda0                _prio_bitmap
 COMMON         0x800aede0       0x3c c:/devkitPro/libogc/lib/wii\libogc.a(exception.o)
                0x800aede0                _exceptionhandlertable
 COMMON         0x800aee1c       0x28 c:/devkitPro/libogc/lib/wii\libogc.a(semaphore.o)
                0x800aee1c                _lwp_sema_objects
 COMMON         0x800aee44       0x28 c:/devkitPro/libogc/lib/wii\libogc.a(mutex.o)
                0x800aee44                _lwp_mutex_objects
 COMMON         0x800aee6c      0x100 c:/devkitPro/libogc/lib/wii\libogc.a(kprintf.o)
                0x800aee6c                __outstr
                0x800aef80                . = ALIGN (0x20)
 *fill*         0x800aef6c       0x14 00
                0x800aef80                PROVIDE (__bss_end, .)
                0x800aef80                __bss_end = .
                0x800aef80                _end = .
                0x800aef80                PROVIDE (end, .)

.stab
 *(.stab)

.stabstr
 *(.stabstr)

.stab.excl
 *(.stab.excl)

.stab.exclstr
 *(.stab.exclstr)

.stab.index
 *(.stab.index)

.stab.indexstr
 *(.stab.indexstr)

.comment        0x00000000     0x1bfa
 *(.comment)
 .comment       0x00000000        0xe c:/devkitpro/devkitppc/bin/../lib/gcc/powerpc-gekko/4.2.4/ecrti.o
 .comment       0x0000000e       0x29 c:/devkitpro/devkitppc/bin/../lib/gcc/powerpc-gekko/4.2.4/crtbegin.o
 .comment       0x00000037       0x29 c:/devkitpro/devkitppc/bin/../lib/gcc/powerpc-gekko/4.2.4/../../../../powerpc-gekko/lib/crtmain.o
 .comment       0x00000060       0x29 helloworld.o
 .comment       0x00000089       0x29 irc.o
 .comment       0x000000b2       0x29 pad.o
 .comment       0x000000db       0x29 reset.o
 .comment       0x00000104       0x29 tcpflood.o
 .comment       0x0000012d       0x29 c:/devkitPro/libogc/lib/wii\libwiiuse.a(wpad.o)
 .comment       0x00000156       0x29 c:/devkitPro/libogc/lib/wii\libwiiuse.a(dynamics.o)
 .comment       0x0000017f       0x29 c:/devkitPro/libogc/lib/wii\libwiiuse.a(io_wii.o)
 .comment       0x000001a8       0x29 c:/devkitPro/libogc/lib/wii\libwiiuse.a(ir.o)
 .comment       0x000001d1       0x29 c:/devkitPro/libogc/lib/wii\libwiiuse.a(wiiuse.o)
 .comment       0x000001fa       0x29 c:/devkitPro/libogc/lib/wii\libwiiuse.a(events.o)
 .comment       0x00000223       0x29 c:/devkitPro/libogc/lib/wii\libwiiuse.a(guitar_hero_3.o)
 .comment       0x0000024c       0x29 c:/devkitPro/libogc/lib/wii\libwiiuse.a(io.o)
 .comment       0x00000275       0x29 c:/devkitPro/libogc/lib/wii\libwiiuse.a(nunchuk.o)
 .comment       0x0000029e       0x29 c:/devkitPro/libogc/lib/wii\libwiiuse.a(wiiboard.o)
 .comment       0x000002c7       0x29 c:/devkitPro/libogc/lib/wii\libwiiuse.a(classic.o)
 .comment       0x000002f0       0x29 c:/devkitPro/libogc/lib/wii\libbte.a(bte.o)
 .comment       0x00000319       0x29 c:/devkitPro/libogc/lib/wii\libbte.a(hci.o)
 .comment       0x00000342       0x29 c:/devkitPro/libogc/lib/wii\libbte.a(l2cap.o)
 .comment       0x0000036b       0x29 c:/devkitPro/libogc/lib/wii\libbte.a(btmemb.o)
 .comment       0x00000394       0x29 c:/devkitPro/libogc/lib/wii\libbte.a(btmemr.o)
 .comment       0x000003bd       0x29 c:/devkitPro/libogc/lib/wii\libbte.a(btpbuf.o)
 .comment       0x000003e6       0x29 c:/devkitPro/libogc/lib/wii\libbte.a(physbusif.o)
 .comment       0x0000040f       0x29 c:/devkitPro/libogc/lib/wii\libogc.a(console.o)
 .comment       0x00000438       0x29 c:/devkitPro/libogc/lib/wii\libogc.a(lwp_queue.o)
 .comment       0x00000461       0x29 c:/devkitPro/libogc/lib/wii\libogc.a(lwp_threads.o)
 .comment       0x0000048a       0x29 c:/devkitPro/libogc/lib/wii\libogc.a(lwp.o)
 .comment       0x000004b3       0x29 c:/devkitPro/libogc/lib/wii\libogc.a(lwp_stack.o)
 .comment       0x000004dc       0x29 c:/devkitPro/libogc/lib/wii\libogc.a(lwp_watchdog.o)
 .comment       0x00000505       0x29 c:/devkitPro/libogc/lib/wii\libogc.a(lwp_wkspace.o)
 .comment       0x0000052e       0x29 c:/devkitPro/libogc/lib/wii\libogc.a(lwp_objmgr.o)
 .comment       0x00000557       0x29 c:/devkitPro/libogc/lib/wii\libogc.a(lwp_heap.o)
 .comment       0x00000580       0x29 c:/devkitPro/libogc/lib/wii\libogc.a(sys_state.o)
 .comment       0x000005a9       0x29 c:/devkitPro/libogc/lib/wii\libogc.a(irq.o)
 .comment       0x000005d2       0x29 c:/devkitPro/libogc/lib/wii\libogc.a(video.o)
 .comment       0x000005fb       0x29 c:/devkitPro/libogc/lib/wii\libogc.a(pad.o)
 .comment       0x00000624       0x29 c:/devkitPro/libogc/lib/wii\libogc.a(system.o)
 .comment       0x0000064d       0x29 c:/devkitPro/libogc/lib/wii\libogc.a(cond.o)
 .comment       0x00000676       0x29 c:/devkitPro/libogc/lib/wii\libogc.a(decrementer.o)
 .comment       0x0000069f       0x29 c:/devkitPro/libogc/lib/wii\libogc.a(message.o)
 .comment       0x000006c8       0x29 c:/devkitPro/libogc/lib/wii\libogc.a(si.o)
 .comment       0x000006f1       0x29 c:/devkitPro/libogc/lib/wii\libogc.a(ipc.o)
 .comment       0x0000071a       0x29 c:/devkitPro/libogc/lib/wii\libogc.a(console_font_8x16.o)
 .comment       0x00000743       0x29 c:/devkitPro/libogc/lib/wii\libogc.a(timesupp.o)
 .comment       0x0000076c       0x29 c:/devkitPro/libogc/lib/wii\libogc.a(lock_supp.o)
 .comment       0x00000795       0x29 c:/devkitPro/libogc/lib/wii\libogc.a(newlibc.o)
 .comment       0x000007be       0x29 c:/devkitPro/libogc/lib/wii\libogc.a(usbgecko.o)
 .comment       0x000007e7       0x29 c:/devkitPro/libogc/lib/wii\libogc.a(sbrk.o)
 .comment       0x00000810       0x29 c:/devkitPro/libogc/lib/wii\libogc.a(malloc_lock.o)
 .comment       0x00000839       0x29 c:/devkitPro/libogc/lib/wii\libogc.a(stm.o)
 .comment       0x00000862       0x29 c:/devkitPro/libogc/lib/wii\libogc.a(ios.o)
 .comment       0x0000088b       0x29 c:/devkitPro/libogc/lib/wii\libogc.a(es.o)
 .comment       0x000008b4       0x29 c:/devkitPro/libogc/lib/wii\libogc.a(usb.o)
 .comment       0x000008dd       0x29 c:/devkitPro/libogc/lib/wii\libogc.a(network_common.o)
 .comment       0x00000906       0x29 c:/devkitPro/libogc/lib/wii\libogc.a(argv.o)
 .comment       0x0000092f       0x29 c:/devkitPro/libogc/lib/wii\libogc.a(network_wii.o)
 .comment       0x00000958       0x29 c:/devkitPro/libogc/lib/wii\libogc.a(conf.o)
 .comment       0x00000981       0x29 c:/devkitPro/libogc/lib/wii\libogc.a(wiilaunch.o)
 .comment       0x000009aa       0x29 c:/devkitPro/libogc/lib/wii\libogc.a(lwp_priority.o)
 .comment       0x000009d3       0x29 c:/devkitPro/libogc/lib/wii\libogc.a(lwp_threadq.o)
 .comment       0x000009fc       0x29 c:/devkitPro/libogc/lib/wii\libogc.a(lwp_messages.o)
 .comment       0x00000a25       0x29 c:/devkitPro/libogc/lib/wii\libogc.a(lwp_mutex.o)
 .comment       0x00000a4e       0x29 c:/devkitPro/libogc/lib/wii\libogc.a(exception.o)
 .comment       0x00000a77       0x29 c:/devkitPro/libogc/lib/wii\libogc.a(semaphore.o)
 .comment       0x00000aa0       0x29 c:/devkitPro/libogc/lib/wii\libogc.a(exi.o)
 .comment       0x00000ac9       0x29 c:/devkitPro/libogc/lib/wii\libogc.a(mutex.o)
 .comment       0x00000af2       0x29 c:/devkitPro/libogc/lib/wii\libogc.a(kprintf.o)
 .comment       0x00000b1b       0x29 c:/devkitPro/libogc/lib/wii\libogc.a(lwp_sema.o)
 .comment       0x00000b44       0x29 c:/devkitpro/devkitppc/bin/../lib/gcc/powerpc-gekko/4.2.4/../../../../powerpc-gekko/lib\libm.a(lib_a-s_atan2.o)
 .comment       0x00000b6d       0x29 c:/devkitpro/devkitppc/bin/../lib/gcc/powerpc-gekko/4.2.4/../../../../powerpc-gekko/lib\libm.a(lib_a-s_atangent.o)
 .comment       0x00000b96       0x29 c:/devkitpro/devkitppc/bin/../lib/gcc/powerpc-gekko/4.2.4/../../../../powerpc-gekko/lib\libm.a(lib_a-s_cos.o)
 .comment       0x00000bbf       0x29 c:/devkitpro/devkitppc/bin/../lib/gcc/powerpc-gekko/4.2.4/../../../../powerpc-gekko/lib\libm.a(lib_a-s_fabs.o)
 .comment       0x00000be8       0x29 c:/devkitpro/devkitppc/bin/../lib/gcc/powerpc-gekko/4.2.4/../../../../powerpc-gekko/lib\libm.a(lib_a-s_frexp.o)
 .comment       0x00000c11       0x29 c:/devkitpro/devkitppc/bin/../lib/gcc/powerpc-gekko/4.2.4/../../../../powerpc-gekko/lib\libm.a(lib_a-s_mathcnst.o)
 .comment       0x00000c3a       0x29 c:/devkitpro/devkitppc/bin/../lib/gcc/powerpc-gekko/4.2.4/../../../../powerpc-gekko/lib\libm.a(lib_a-s_numtest.o)
 .comment       0x00000c63       0x29 c:/devkitpro/devkitppc/bin/../lib/gcc/powerpc-gekko/4.2.4/../../../../powerpc-gekko/lib\libm.a(lib_a-s_sin.o)
 .comment       0x00000c8c       0x29 c:/devkitpro/devkitppc/bin/../lib/gcc/powerpc-gekko/4.2.4/../../../../powerpc-gekko/lib\libm.a(lib_a-s_sine.o)
 .comment       0x00000cb5       0x29 c:/devkitpro/devkitppc/bin/../lib/gcc/powerpc-gekko/4.2.4/../../../../powerpc-gekko/lib\libm.a(lib_a-s_sqrt.o)
 .comment       0x00000cde       0x29 c:/devkitpro/devkitppc/bin/../lib/gcc/powerpc-gekko/4.2.4/../../../../powerpc-gekko/lib\libm.a(lib_a-sf_atan.o)
 .comment       0x00000d07       0x29 c:/devkitpro/devkitppc/bin/../lib/gcc/powerpc-gekko/4.2.4/../../../../powerpc-gekko/lib\libm.a(lib_a-sf_atan2.o)
 .comment       0x00000d30       0x29 c:/devkitpro/devkitppc/bin/../lib/gcc/powerpc-gekko/4.2.4/../../../../powerpc-gekko/lib\libm.a(lib_a-sf_atangent.o)
 .comment       0x00000d59       0x29 c:/devkitpro/devkitppc/bin/../lib/gcc/powerpc-gekko/4.2.4/../../../../powerpc-gekko/lib\libm.a(lib_a-sf_cos.o)
 .comment       0x00000d82       0x29 c:/devkitpro/devkitppc/bin/../lib/gcc/powerpc-gekko/4.2.4/../../../../powerpc-gekko/lib\libm.a(lib_a-sf_fabs.o)
 .comment       0x00000dab       0x29 c:/devkitpro/devkitppc/bin/../lib/gcc/powerpc-gekko/4.2.4/../../../../powerpc-gekko/lib\libm.a(lib_a-sf_fpclassify.o)
 .comment       0x00000dd4       0x29 c:/devkitpro/devkitppc/bin/../lib/gcc/powerpc-gekko/4.2.4/../../../../powerpc-gekko/lib\libm.a(lib_a-sf_frexp.o)
 .comment       0x00000dfd       0x29 c:/devkitpro/devkitppc/bin/../lib/gcc/powerpc-gekko/4.2.4/../../../../powerpc-gekko/lib\libm.a(lib_a-sf_isinff.o)
 .comment       0x00000e26       0x29 c:/devkitpro/devkitppc/bin/../lib/gcc/powerpc-gekko/4.2.4/../../../../powerpc-gekko/lib\libm.a(lib_a-sf_isnanf.o)
 .comment       0x00000e4f       0x29 c:/devkitpro/devkitppc/bin/../lib/gcc/powerpc-gekko/4.2.4/../../../../powerpc-gekko/lib\libm.a(lib_a-sf_numtest.o)
 .comment       0x00000e78       0x29 c:/devkitpro/devkitppc/bin/../lib/gcc/powerpc-gekko/4.2.4/../../../../powerpc-gekko/lib\libm.a(lib_a-sf_sin.o)
 .comment       0x00000ea1       0x29 c:/devkitpro/devkitppc/bin/../lib/gcc/powerpc-gekko/4.2.4/../../../../powerpc-gekko/lib\libm.a(lib_a-sf_sine.o)
 .comment       0x00000eca       0x29 c:/devkitpro/devkitppc/bin/../lib/gcc/powerpc-gekko/4.2.4/../../../../powerpc-gekko/lib\libm.a(lib_a-sf_sqrt.o)
 .comment       0x00000ef3       0x29 c:/devkitpro/devkitppc/bin/../lib/gcc/powerpc-gekko/4.2.4/../../../../powerpc-gekko/lib\libm.a(lib_a-s_ispos.o)
 .comment       0x00000f1c       0x29 c:/devkitpro/devkitppc/bin/../lib/gcc/powerpc-gekko/4.2.4/../../../../powerpc-gekko/lib\libm.a(lib_a-s_ldexp.o)
 .comment       0x00000f45       0x29 c:/devkitpro/devkitppc/bin/../lib/gcc/powerpc-gekko/4.2.4/../../../../powerpc-gekko/lib\libm.a(lib_a-sf_ispos.o)
 .comment       0x00000f6e       0x29 c:/devkitpro/devkitppc/bin/../lib/gcc/powerpc-gekko/4.2.4/../../../../powerpc-gekko/lib\libm.a(lib_a-sf_ldexp.o)
 .comment       0x00000f97       0x29 c:/devkitpro/devkitppc/bin/../lib/gcc/powerpc-gekko/4.2.4\libgcc.a(_udivdi3.o)
 .comment       0x00000fc0       0x29 c:/devkitpro/devkitppc/bin/../lib/gcc/powerpc-gekko/4.2.4/../../../../powerpc-gekko/lib\libsysbase.a(abort.o)
 .comment       0x00000fe9       0x29 c:/devkitpro/devkitppc/bin/../lib/gcc/powerpc-gekko/4.2.4/../../../../powerpc-gekko/lib\libsysbase.a(iosupport.o)
 .comment       0x00001012       0x29 c:/devkitpro/devkitppc/bin/../lib/gcc/powerpc-gekko/4.2.4/../../../../powerpc-gekko/lib\libsysbase.a(_exit.o)
 .comment       0x0000103b       0x29 c:/devkitpro/devkitppc/bin/../lib/gcc/powerpc-gekko/4.2.4/../../../../powerpc-gekko/lib\libsysbase.a(build_argv.o)
 .comment       0x00001064       0x29 c:/devkitpro/devkitppc/bin/../lib/gcc/powerpc-gekko/4.2.4/../../../../powerpc-gekko/lib\libsysbase.a(syscall_support.o)
 .comment       0x0000108d       0x29 c:/devkitpro/devkitppc/bin/../lib/gcc/powerpc-gekko/4.2.4/../../../../powerpc-gekko/lib\libc.a(lib_a-atoi.o)
 .comment       0x000010b6       0x29 c:/devkitpro/devkitppc/bin/../lib/gcc/powerpc-gekko/4.2.4/../../../../powerpc-gekko/lib\libc.a(lib_a-calloc.o)
 .comment       0x000010df       0x29 c:/devkitpro/devkitppc/bin/../lib/gcc/powerpc-gekko/4.2.4/../../../../powerpc-gekko/lib\libc.a(lib_a-callocr.o)
 .comment       0x00001108       0x29 c:/devkitpro/devkitppc/bin/../lib/gcc/powerpc-gekko/4.2.4/../../../../powerpc-gekko/lib\libc.a(lib_a-ctype_.o)
 .comment       0x00001131       0x29 c:/devkitpro/devkitppc/bin/../lib/gcc/powerpc-gekko/4.2.4/../../../../powerpc-gekko/lib\libc.a(lib_a-errno.o)
 .comment       0x0000115a       0x29 c:/devkitpro/devkitppc/bin/../lib/gcc/powerpc-gekko/4.2.4/../../../../powerpc-gekko/lib\libc.a(lib_a-exit.o)
 .comment       0x00001183       0x29 c:/devkitpro/devkitppc/bin/../lib/gcc/powerpc-gekko/4.2.4/../../../../powerpc-gekko/lib\libc.a(lib_a-fflush.o)
 .comment       0x000011ac       0x29 c:/devkitpro/devkitppc/bin/../lib/gcc/powerpc-gekko/4.2.4/../../../../powerpc-gekko/lib\libc.a(lib_a-findfp.o)
 .comment       0x000011d5       0x29 c:/devkitpro/devkitppc/bin/../lib/gcc/powerpc-gekko/4.2.4/../../../../powerpc-gekko/lib\libc.a(lib_a-fprintf.o)
 .comment       0x000011fe       0x29 c:/devkitpro/devkitppc/bin/../lib/gcc/powerpc-gekko/4.2.4/../../../../powerpc-gekko/lib\libc.a(lib_a-freer.o)
 .comment       0x00001227       0x29 c:/devkitpro/devkitppc/bin/../lib/gcc/powerpc-gekko/4.2.4/../../../../powerpc-gekko/lib\libc.a(lib_a-fwalk.o)
 .comment       0x00001250       0x29 c:/devkitpro/devkitppc/bin/../lib/gcc/powerpc-gekko/4.2.4/../../../../powerpc-gekko/lib\libc.a(lib_a-fwrite.o)
 .comment       0x00001279       0x29 c:/devkitpro/devkitppc/bin/../lib/gcc/powerpc-gekko/4.2.4/../../../../powerpc-gekko/lib\libc.a(lib_a-impure.o)
 .comment       0x000012a2       0x29 c:/devkitpro/devkitppc/bin/../lib/gcc/powerpc-gekko/4.2.4/../../../../powerpc-gekko/lib\libc.a(lib_a-malign.o)
 .comment       0x000012cb       0x29 c:/devkitpro/devkitppc/bin/../lib/gcc/powerpc-gekko/4.2.4/../../../../powerpc-gekko/lib\libc.a(lib_a-malignr.o)
 .comment       0x000012f4       0x29 c:/devkitpro/devkitppc/bin/../lib/gcc/powerpc-gekko/4.2.4/../../../../powerpc-gekko/lib\libc.a(lib_a-malloc.o)
 .comment       0x0000131d       0x29 c:/devkitpro/devkitppc/bin/../lib/gcc/powerpc-gekko/4.2.4/../../../../powerpc-gekko/lib\libc.a(lib_a-mallocr.o)
 .comment       0x00001346       0x29 c:/devkitpro/devkitppc/bin/../lib/gcc/powerpc-gekko/4.2.4/../../../../powerpc-gekko/lib\libc.a(lib_a-memcmp.o)
 .comment       0x0000136f       0x29 c:/devkitpro/devkitppc/bin/../lib/gcc/powerpc-gekko/4.2.4/../../../../powerpc-gekko/lib\libc.a(lib_a-memcpy.o)
 .comment       0x00001398       0x29 c:/devkitpro/devkitppc/bin/../lib/gcc/powerpc-gekko/4.2.4/../../../../powerpc-gekko/lib\libc.a(lib_a-memmove.o)
 .comment       0x000013c1       0x29 c:/devkitpro/devkitppc/bin/../lib/gcc/powerpc-gekko/4.2.4/../../../../powerpc-gekko/lib\libc.a(lib_a-memset.o)
 .comment       0x000013ea       0x29 c:/devkitpro/devkitppc/bin/../lib/gcc/powerpc-gekko/4.2.4/../../../../powerpc-gekko/lib\libc.a(lib_a-printf.o)
 .comment       0x00001413       0x29 c:/devkitpro/devkitppc/bin/../lib/gcc/powerpc-gekko/4.2.4/../../../../powerpc-gekko/lib\libc.a(lib_a-puts.o)
 .comment       0x0000143c       0x29 c:/devkitpro/devkitppc/bin/../lib/gcc/powerpc-gekko/4.2.4/../../../../powerpc-gekko/lib\libc.a(lib_a-reent.o)
 .comment       0x00001465       0x29 c:/devkitpro/devkitppc/bin/../lib/gcc/powerpc-gekko/4.2.4/../../../../powerpc-gekko/lib\libc.a(lib_a-setvbuf.o)
 .comment       0x0000148e       0x29 c:/devkitpro/devkitppc/bin/../lib/gcc/powerpc-gekko/4.2.4/../../../../powerpc-gekko/lib\libc.a(lib_a-snprintf.o)
 .comment       0x000014b7       0x29 c:/devkitpro/devkitppc/bin/../lib/gcc/powerpc-gekko/4.2.4/../../../../powerpc-gekko/lib\libc.a(lib_a-sprintf.o)
 .comment       0x000014e0       0x29 c:/devkitpro/devkitppc/bin/../lib/gcc/powerpc-gekko/4.2.4/../../../../powerpc-gekko/lib\libc.a(lib_a-stdio.o)
 .comment       0x00001509       0x29 c:/devkitpro/devkitppc/bin/../lib/gcc/powerpc-gekko/4.2.4/../../../../powerpc-gekko/lib\libc.a(lib_a-strchr.o)
 .comment       0x00001532       0x29 c:/devkitpro/devkitppc/bin/../lib/gcc/powerpc-gekko/4.2.4/../../../../powerpc-gekko/lib\libc.a(lib_a-strcmp.o)
 .comment       0x0000155b       0x29 c:/devkitpro/devkitppc/bin/../lib/gcc/powerpc-gekko/4.2.4/../../../../powerpc-gekko/lib\libc.a(lib_a-strcpy.o)
 .comment       0x00001584       0x29 c:/devkitpro/devkitppc/bin/../lib/gcc/powerpc-gekko/4.2.4/../../../../powerpc-gekko/lib\libc.a(lib_a-strerror.o)
 .comment       0x000015ad       0x29 c:/devkitpro/devkitppc/bin/../lib/gcc/powerpc-gekko/4.2.4/../../../../powerpc-gekko/lib\libc.a(lib_a-strlen.o)
 .comment       0x000015d6       0x29 c:/devkitpro/devkitppc/bin/../lib/gcc/powerpc-gekko/4.2.4/../../../../powerpc-gekko/lib\libc.a(lib_a-strncmp.o)
 .comment       0x000015ff       0x29 c:/devkitpro/devkitppc/bin/../lib/gcc/powerpc-gekko/4.2.4/../../../../powerpc-gekko/lib\libc.a(lib_a-strncpy.o)
 .comment       0x00001628       0x29 c:/devkitpro/devkitppc/bin/../lib/gcc/powerpc-gekko/4.2.4/../../../../powerpc-gekko/lib\libc.a(lib_a-strnlen.o)
 .comment       0x00001651       0x29 c:/devkitpro/devkitppc/bin/../lib/gcc/powerpc-gekko/4.2.4/../../../../powerpc-gekko/lib\libc.a(lib_a-strtok.o)
 .comment       0x0000167a       0x29 c:/devkitpro/devkitppc/bin/../lib/gcc/powerpc-gekko/4.2.4/../../../../powerpc-gekko/lib\libc.a(lib_a-strtok_r.o)
 .comment       0x000016a3       0x29 c:/devkitpro/devkitppc/bin/../lib/gcc/powerpc-gekko/4.2.4/../../../../powerpc-gekko/lib\libc.a(lib_a-strtol.o)
 .comment       0x000016cc       0x29 c:/devkitpro/devkitppc/bin/../lib/gcc/powerpc-gekko/4.2.4/../../../../powerpc-gekko/lib\libc.a(lib_a-strtoul.o)
 .comment       0x000016f5       0x29 c:/devkitpro/devkitppc/bin/../lib/gcc/powerpc-gekko/4.2.4/../../../../powerpc-gekko/lib\libc.a(lib_a-strtoull_r.o)
 .comment       0x0000171e       0x29 c:/devkitpro/devkitppc/bin/../lib/gcc/powerpc-gekko/4.2.4/../../../../powerpc-gekko/lib\libc.a(lib_a-syswrite.o)
 .comment       0x00001747       0x29 c:/devkitpro/devkitppc/bin/../lib/gcc/powerpc-gekko/4.2.4/../../../../powerpc-gekko/lib\libc.a(lib_a-u_strerr.o)
 .comment       0x00001770       0x29 c:/devkitpro/devkitppc/bin/../lib/gcc/powerpc-gekko/4.2.4/../../../../powerpc-gekko/lib\libc.a(lib_a-vfprintf.o)
 .comment       0x00001799       0x29 c:/devkitpro/devkitppc/bin/../lib/gcc/powerpc-gekko/4.2.4/../../../../powerpc-gekko/lib\libc.a(lib_a-wcrtomb.o)
 .comment       0x000017c2       0x29 c:/devkitpro/devkitppc/bin/../lib/gcc/powerpc-gekko/4.2.4/../../../../powerpc-gekko/lib\libc.a(lib_a-wcsrtombs.o)
 .comment       0x000017eb       0x29 c:/devkitpro/devkitppc/bin/../lib/gcc/powerpc-gekko/4.2.4/../../../../powerpc-gekko/lib\libc.a(lib_a-wctomb_r.o)
 .comment       0x00001814       0x29 c:/devkitpro/devkitppc/bin/../lib/gcc/powerpc-gekko/4.2.4/../../../../powerpc-gekko/lib\libc.a(lib_a-wsetup.o)
 .comment       0x0000183d       0x29 c:/devkitpro/devkitppc/bin/../lib/gcc/powerpc-gekko/4.2.4/../../../../powerpc-gekko/lib\libc.a(lib_a-__call_atexit.o)
 .comment       0x00001866       0x29 c:/devkitpro/devkitppc/bin/../lib/gcc/powerpc-gekko/4.2.4/../../../../powerpc-gekko/lib\libc.a(lib_a-dtoa.o)
 .comment       0x0000188f       0x29 c:/devkitpro/devkitppc/bin/../lib/gcc/powerpc-gekko/4.2.4/../../../../powerpc-gekko/lib\libc.a(lib_a-fclose.o)
 .comment       0x000018b8       0x29 c:/devkitpro/devkitppc/bin/../lib/gcc/powerpc-gekko/4.2.4/../../../../powerpc-gekko/lib\libc.a(lib_a-fvwrite.o)
 .comment       0x000018e1       0x29 c:/devkitpro/devkitppc/bin/../lib/gcc/powerpc-gekko/4.2.4/../../../../powerpc-gekko/lib\libc.a(lib_a-locale.o)
 .comment       0x0000190a       0x29 c:/devkitpro/devkitppc/bin/../lib/gcc/powerpc-gekko/4.2.4/../../../../powerpc-gekko/lib\libc.a(lib_a-makebuf.o)
 .comment       0x00001933       0x29 c:/devkitpro/devkitppc/bin/../lib/gcc/powerpc-gekko/4.2.4/../../../../powerpc-gekko/lib\libc.a(lib_a-mbtowc_r.o)
 .comment       0x0000195c       0x29 c:/devkitpro/devkitppc/bin/../lib/gcc/powerpc-gekko/4.2.4/../../../../powerpc-gekko/lib\libc.a(lib_a-memchr.o)
 .comment       0x00001985       0x29 c:/devkitpro/devkitppc/bin/../lib/gcc/powerpc-gekko/4.2.4/../../../../powerpc-gekko/lib\libc.a(lib_a-mprec.o)
 .comment       0x000019ae       0x29 c:/devkitpro/devkitppc/bin/../lib/gcc/powerpc-gekko/4.2.4/../../../../powerpc-gekko/lib\libc.a(lib_a-reallocr.o)
 .comment       0x000019d7       0x29 c:/devkitpro/devkitppc/bin/../lib/gcc/powerpc-gekko/4.2.4/../../../../powerpc-gekko/lib\libc.a(lib_a-s_isinfd.o)
 .comment       0x00001a00       0x29 c:/devkitpro/devkitppc/bin/../lib/gcc/powerpc-gekko/4.2.4/../../../../powerpc-gekko/lib\libc.a(lib_a-s_isnand.o)
 .comment       0x00001a29       0x29 c:/devkitpro/devkitppc/bin/../lib/gcc/powerpc-gekko/4.2.4/../../../../powerpc-gekko/lib\libsysbase.a(close.o)
 .comment       0x00001a52       0x29 c:/devkitpro/devkitppc/bin/../lib/gcc/powerpc-gekko/4.2.4/../../../../powerpc-gekko/lib\libsysbase.a(fstat.o)
 .comment       0x00001a7b       0x29 c:/devkitpro/devkitppc/bin/../lib/gcc/powerpc-gekko/4.2.4/../../../../powerpc-gekko/lib\libsysbase.a(isatty.o)
 .comment       0x00001aa4       0x29 c:/devkitpro/devkitppc/bin/../lib/gcc/powerpc-gekko/4.2.4/../../../../powerpc-gekko/lib\libsysbase.a(lseek.o)
 .comment       0x00001acd       0x29 c:/devkitpro/devkitppc/bin/../lib/gcc/powerpc-gekko/4.2.4/../../../../powerpc-gekko/lib\libsysbase.a(read.o)
 .comment       0x00001af6       0x29 c:/devkitpro/devkitppc/bin/../lib/gcc/powerpc-gekko/4.2.4/../../../../powerpc-gekko/lib\libsysbase.a(sbrk.o)
 .comment       0x00001b1f       0x29 c:/devkitpro/devkitppc/bin/../lib/gcc/powerpc-gekko/4.2.4/../../../../powerpc-gekko/lib\libsysbase.a(write.o)
 .comment       0x00001b48       0x29 c:/devkitpro/devkitppc/bin/../lib/gcc/powerpc-gekko/4.2.4/../../../../powerpc-gekko/lib\libsysbase.a(flock.o)
 .comment       0x00001b71       0x29 c:/devkitpro/devkitppc/bin/../lib/gcc/powerpc-gekko/4.2.4/../../../../powerpc-gekko/lib\libsysbase.a(handle_manager.o)
 .comment       0x00001b9a       0x29 c:/devkitpro/devkitppc/bin/../lib/gcc/powerpc-gekko/4.2.4\libgcc.a(_umoddi3.o)
 .comment       0x00001bc3       0x29 c:/devkitpro/devkitppc/bin/../lib/gcc/powerpc-gekko/4.2.4/crtend.o
 .comment       0x00001bec        0xe c:/devkitpro/devkitppc/bin/../lib/gcc/powerpc-gekko/4.2.4/ecrtn.o

.debug
 *(.debug)

.line
 *(.line)

.debug_srcinfo
 *(.debug_srcinfo)

.debug_sfnames
 *(.debug_sfnames)

.debug_aranges  0x00000000      0x138
 *(.debug_aranges)
 .debug_aranges
                0x00000000       0x20 c:/devkitpro/devkitppc/bin/../lib/gcc/powerpc-gekko/4.2.4/../../../../powerpc-gekko/lib/crtmain.o
 .debug_aranges
                0x00000020       0x28 helloworld.o
 .debug_aranges
                0x00000048       0x38 irc.o
 .debug_aranges
                0x00000080       0x30 pad.o
 .debug_aranges
                0x000000b0       0x58 reset.o
 .debug_aranges
                0x00000108       0x30 tcpflood.o

.debug_pubnames
                0x00000000      0x16e
 *(.debug_pubnames)
 .debug_pubnames
                0x00000000       0x20 c:/devkitpro/devkitppc/bin/../lib/gcc/powerpc-gekko/4.2.4/../../../../powerpc-gekko/lib/crtmain.o
 .debug_pubnames
                0x00000020       0x1b helloworld.o
 .debug_pubnames
                0x0000003b       0x46 irc.o
 .debug_pubnames
                0x00000081       0x37 pad.o
 .debug_pubnames
                0x000000b8       0x88 reset.o
 .debug_pubnames
                0x00000140       0x2e tcpflood.o

.debug_info     0x00000000     0x1d35
 *(.debug_info)
 .debug_info    0x00000000       0xfc c:/devkitpro/devkitppc/bin/../lib/gcc/powerpc-gekko/4.2.4/../../../../powerpc-gekko/lib/crtmain.o
 .debug_info    0x000000fc      0x25d helloworld.o
 .debug_info    0x00000359      0xba1 irc.o
 .debug_info    0x00000efa       0xff pad.o
 .debug_info    0x00000ff9      0x1a8 reset.o
 .debug_info    0x000011a1      0xb94 tcpflood.o

.debug_abbrev   0x00000000      0x708
 *(.debug_abbrev)
 .debug_abbrev  0x00000000       0x7e c:/devkitpro/devkitppc/bin/../lib/gcc/powerpc-gekko/4.2.4/../../../../powerpc-gekko/lib/crtmain.o
 .debug_abbrev  0x0000007e      0x105 helloworld.o
 .debug_abbrev  0x00000183      0x1f2 irc.o
 .debug_abbrev  0x00000375       0x8c pad.o
 .debug_abbrev  0x00000401      0x149 reset.o
 .debug_abbrev  0x0000054a      0x1be tcpflood.o

.debug_line     0x00000000      0x8bc
 *(.debug_line)
 .debug_line    0x00000000       0x7d c:/devkitpro/devkitppc/bin/../lib/gcc/powerpc-gekko/4.2.4/../../../../powerpc-gekko/lib/crtmain.o
 .debug_line    0x0000007d       0xf9 helloworld.o
 .debug_line    0x00000176      0x2ab irc.o
 .debug_line    0x00000421       0xb8 pad.o
 .debug_line    0x000004d9      0x11c reset.o
 .debug_line    0x000005f5      0x2c7 tcpflood.o

.debug_frame    0x00000000      0x27c
 *(.debug_frame)
 .debug_frame   0x00000000       0x30 c:/devkitpro/devkitppc/bin/../lib/gcc/powerpc-gekko/4.2.4/../../../../powerpc-gekko/lib/crtmain.o
 .debug_frame   0x00000030       0x30 helloworld.o
 .debug_frame   0x00000060       0xa4 irc.o
 .debug_frame   0x00000104       0x50 pad.o
 .debug_frame   0x00000154       0xb0 reset.o
 .debug_frame   0x00000204       0x78 tcpflood.o

.debug_str      0x00000000      0x962
 *(.debug_str)
 .debug_str     0x00000000      0x155 c:/devkitpro/devkitppc/bin/../lib/gcc/powerpc-gekko/4.2.4/../../../../powerpc-gekko/lib/crtmain.o
                                0x193 (size before relaxing)
 .debug_str     0x00000155      0x147 helloworld.o
                                0x207 (size before relaxing)
 .debug_str     0x0000029c      0x4d7 irc.o
                                0x604 (size before relaxing)
 .debug_str     0x00000773       0x61 pad.o
                                0x15a (size before relaxing)
 .debug_str     0x000007d4       0xd3 reset.o
                                0x1ca (size before relaxing)
 .debug_str     0x000008a7       0xbb tcpflood.o
                                0x5d1 (size before relaxing)

.debug_loc      0x00000000      0x692
 *(.debug_loc)
 .debug_loc     0x00000000       0x1f c:/devkitpro/devkitppc/bin/../lib/gcc/powerpc-gekko/4.2.4/../../../../powerpc-gekko/lib/crtmain.o
 .debug_loc     0x0000001f       0x58 helloworld.o
 .debug_loc     0x00000077      0x29f irc.o
 .debug_loc     0x00000316       0xcc pad.o
 .debug_loc     0x000003e2       0xb8 reset.o
 .debug_loc     0x0000049a      0x1f8 tcpflood.o

.debug_macinfo
 *(.debug_macinfo)

.debug_weaknames
 *(.debug_weaknames)

.debug_funcnames
 *(.debug_funcnames)

.debug_typenames
 *(.debug_typenames)

.debug_varnames
 *(.debug_varnames)
                0x00000000                __isIPL = 0x0
                0x800cef80                __stack_addr = ((((__bss_start + SIZEOF (.bss)) + 0x20000) + 0x7) & 0xfffffff8)
                0x800aef80                __stack_end = (__bss_start + SIZEOF (.bss))
                0x800d2f80                __intrstack_addr = (__stack_addr + 0x4000)
                0x800cef80                __intrstack_end = __stack_addr
                0x800d2f80                __Arena1Lo = ((__intrstack_addr + 0x1f) & 0xffffffe0)
                0x816ffff0                __Arena1Hi = 0x816ffff0
                0x90002000                __Arena2Lo = 0x90002000
                0x933e0000                __Arena2Hi = 0x933e0000
                0x81700000                __gxregs = ((__Arena1Hi + 0x1f) & 0xffffffe0)
                0x933e0000                __ipcbufferLo = 0x933e0000
                0x93400000                __ipcbufferHi = 0x93400000
                0x816ffff0                PROVIDE (__stack, 0x816ffff0)
                [0x00000000]                PROVIDE (__isIPL, __isIPL)
                [0x800cef80]                PROVIDE (__stack_addr, __stack_addr)
                [0x800aef80]                PROVIDE (__stack_end, __stack_end)
                [0x800d2f80]                PROVIDE (__intrstack_addr, __intrstack_addr)
                [0x800cef80]                PROVIDE (__intrstack_end, __intrstack_end)
                [0x800d2f80]                PROVIDE (__Arena1Lo, __Arena1Lo)
                [0x816ffff0]                PROVIDE (__Arena1Hi, __Arena1Hi)
                [0x90002000]                PROVIDE (__Arena2Lo, __Arena2Lo)
                [0x933e0000]                PROVIDE (__Arena2Hi, __Arena2Hi)
                [0x933e0000]                PROVIDE (__ipcbufferLo, __ipcbufferLo)
                [0x93400000]                PROVIDE (__ipcbufferHi, __ipcbufferHi)
                [0x81700000]                PROVIDE (__gxregs, __gxregs)
LOAD c:/devkitpro/devkitppc/bin/../lib/gcc/powerpc-gekko/4.2.4/ecrti.o
LOAD c:/devkitpro/devkitppc/bin/../lib/gcc/powerpc-gekko/4.2.4/crtbegin.o
LOAD c:/devkitpro/devkitppc/bin/../lib/gcc/powerpc-gekko/4.2.4/../../../../powerpc-gekko/lib/crtmain.o
LOAD helloworld.o
LOAD irc.o
LOAD pad.o
LOAD reset.o
LOAD tcpflood.o
LOAD c:/devkitPro/libogc/lib/wii\libwiiuse.a
LOAD c:/devkitPro/libogc/lib/wii\libbte.a
LOAD c:/devkitPro/libogc/lib/wii\libogc.a
LOAD c:/devkitpro/devkitppc/bin/../lib/gcc/powerpc-gekko/4.2.4/../../../../powerpc-gekko/lib\libm.a
LOAD c:/devkitpro/devkitppc/bin/../lib/gcc/powerpc-gekko/4.2.4\libgcc.a
START GROUP
LOAD c:/devkitpro/devkitppc/bin/../lib/gcc/powerpc-gekko/4.2.4/../../../../powerpc-gekko/lib\libsysbase.a
LOAD c:/devkitpro/devkitppc/bin/../lib/gcc/powerpc-gekko/4.2.4/../../../../powerpc-gekko/lib\libc.a
END GROUP
LOAD c:/devkitpro/devkitppc/bin/../lib/gcc/powerpc-gekko/4.2.4\libgcc.a
LOAD c:/devkitpro/devkitppc/bin/../lib/gcc/powerpc-gekko/4.2.4/crtsavres.o
LOAD c:/devkitpro/devkitppc/bin/../lib/gcc/powerpc-gekko/4.2.4/crtend.o
LOAD c:/devkitpro/devkitppc/bin/../lib/gcc/powerpc-gekko/4.2.4/ecrtn.o
OUTPUT(c:/Projects/Wii/botnet_tcpflood_multithreaded_irc/botnet_tcpflood_multithreaded_irc.elf elf32-powerpc)
